(lp1
ccopy_reg
_reconstructor
p2
(cpymatgen.core.structure
Structure
p3
c__builtin__
object
p4
NtRp5
(dp6
S'_sites'
p7
(lp8
g2
(cpymatgen.core.sites
PeriodicSite
p9
g4
NtRp10
(dp11
S'_fcoords'
p12
(lp13
F1.713088535
aF1.713088535
aF1.713088535
asS'_species'
p14
g2
(cpymatgen.core.composition
Composition
p15
g4
NtRp16
(dp17
S'_natoms'
p18
I1
sS'allow_negative'
p19
I00
sS'_data'
p20
(dp21
cpymatgen.core.periodic_table
Element
p22
(VSi
p23
tRp24
I1
ssbsS'_lattice'
p25
g2
(cpymatgen.core.lattice
Lattice
p26
g4
NtRp27
(dp28
S'_diags'
p29
NsS'_lll_inverse'
p30
NsS'_lengths'
p31
cnumpy.core.multiarray
_reconstruct
p32
(cnumpy
ndarray
p33
(I0
tS'b'
tRp34
(I1
(I3
tcnumpy
dtype
p35
(S'f8'
I0
I1
tRp36
(I3
S'<'
NNNI-1
I-1
I0
tbI00
S'X\xb2\x89\xe9)\x98\x16@X\xb2\x89\xe9)\x98\x16@X\xb2\x89\xe9)\x98\x16@'
tbsS'_inv_matrix'
p37
NsS'_matrix'
p38
g32
(g33
(I0
tS'b'
tRp39
(I1
(I3
I3
tg36
I00
S'VK\x9a<\xee\x16\n\xc0*U\xe4\x08\x00\x17\n@*U\xe4\x08\x00\x17\n@*U\xe4\x08\x00\x17\n@VK\x9a<\xee\x16\n\xc0*U\xe4\x08\x00\x17\n@*U\xe4\x08\x00\x17\n@*U\xe4\x08\x00\x17\n@VK\x9a<\xee\x16\n\xc0'
tbsS'_angles'
p40
g32
(g33
(I0
tS'b'
tRp41
(I1
(I3
tg36
I00
S'&\xb6[\xdf#^[@&\xb6[\xdf#^[@&\xb6[\xdf#^[@'
tbsS'_metric_tensor'
p42
NsS'is_orthogonal'
p43
I00
sS'_lll_matrix_mappings'
p44
(dp45
sbsS'_coords'
p46
g32
(g33
(I0
tS'b'
tRp47
(I1
(I3
tg36
I00
S'\x1d\xad\\8\xebX\x16@\x1d\xad\\8\xebX\x16@\x1d\xad\\8\xebX\x16@'
tbsS'_properties'
p48
(dp49
sS'_is_ordered'
p50
I01
sbag2
(g9
g4
NtRp51
(dp52
g12
(lp53
F-1.2130511150000001
aF0.50009251099999996
aF7.9160999999999996e-05
asg14
g2
(g15
g4
NtRp54
(dp55
g18
I1
sg19
I00
sg20
(dp56
g24
I1
ssbsg25
g27
sg46
g32
(g33
(I0
tS'b'
tRp57
(I1
(I3
tg36
I00
S'\xa7&?\xf4CY\x16@\xdc\x1e\x84\xf2\xc2X\x16\xc0\xd1@[\x1ba\x9a\x02\xc0'
tbsg48
(dp58
sg50
I01
sbag2
(g9
g4
NtRp59
(dp60
g12
(lp61
F1.0000791609999999
aF-1.2130511150000001
aF0.50009251099999996
asg14
g2
(g15
g4
NtRp62
(dp63
g18
I1
sg19
I00
sg20
(dp64
g24
I1
ssbsg25
g27
sg46
g32
(g33
(I0
tS'b'
tRp65
(I1
(I3
tg36
I00
S'\x14\xc6\xfa\xab\xa7X\x16\xc0\x9e\xa8X\xfca\xb2!@\x8f\xe8#\xdc\x85\x9a\x02\xc0'
tbsg48
(dp66
sg50
I01
sbag2
(g9
g4
NtRp67
(dp68
g12
(lp69
F0.50009251099999996
aF7.9160999999999996e-05
aF-1.2130511150000001
asg14
g2
(g15
g4
NtRp70
(dp71
g18
I1
sg19
I00
sg20
(dp72
g24
I1
ssbsg25
g27
sg46
g32
(g33
(I0
tS'b'
tRp73
(I1
(I3
tg36
I00
S'\xdc\x1e\x84\xf2\xc2X\x16\xc0\xd1@[\x1ba\x9a\x02\xc0\xa8&?\xf4CY\x16@'
tbsg48
(dp74
sg50
I01
sbag2
(g9
g4
NtRp75
(dp76
g12
(lp77
F1.2131875700000001
aF1.2131875700000001
aF1.2131875700000001
asg14
g2
(g15
g4
NtRp78
(dp79
g18
I1
sg19
I00
sg20
(dp80
g24
I1
ssbsg25
g27
sg46
g32
(g33
(I0
tS'b'
tRp81
(I1
(I3
tg36
I00
S'\xd9_\xaf\xdb\xf6\xa6\x0f@\xd9_\xaf\xdb\xf6\xa6\x0f@\xd9_\xaf\xdb\xf6\xa6\x0f@'
tbsg48
(dp82
sg50
I01
sbag2
(g9
g4
NtRp83
(dp84
g12
(lp85
F-0.71319722299999999
aF0.49990531799999999
aF-0.000104757
asg14
g2
(g15
g4
NtRp86
(dp87
g18
I1
sg19
I00
sg20
(dp88
g24
I1
ssbsg25
g27
sg46
g32
(g33
(I0
tS'b'
tRp89
(I1
(I3
tg36
I00
S'\x07HY\x12\x90\xa5\x0f@o9\x94\x19\xfa\xa6\x0f\xc0\xd6e\xaf\x0b\x82?\xe6\xbf'
tbsg48
(dp90
sg50
I01
sbag2
(g9
g4
NtRp91
(dp92
g12
(lp93
F0.99989524299999999
aF-0.71319722299999999
aF0.49990531799999999
asg14
g2
(g15
g4
NtRp94
(dp95
g18
I1
sg19
I00
sg20
(dp96
g24
I1
ssbsg25
g27
sg46
g32
(g33
(I0
tS'b'
tRp97
(I1
(I3
tg36
I00
S'\xcc$\x86\xbf\xce\xa6\x0f\xc0\x98\xce\x9e\rH\xde\x1c@\x14\x91\xbfB\xe8?\xe6\xbf'
tbsg48
(dp98
sg50
I01
sbag2
(g9
g4
NtRp99
(dp100
g12
(lp101
F0.49990531799999999
aF-0.000104757
aF-0.71319722299999999
asg14
g2
(g15
g4
NtRp102
(dp103
g18
I1
sg19
I00
sg20
(dp104
g24
I1
ssbsg25
g27
sg46
g32
(g33
(I0
tS'b'
tRp105
(I1
(I3
tg36
I00
S'n9\x94\x19\xfa\xa6\x0f\xc0\xd7e\xaf\x0b\x82?\xe6\xbf\x07HY\x12\x90\xa5\x0f@'
tbsg48
(dp106
sg50
I01
sbasg25
g27
sbag2
(g3
g4
NtRp107
(dp108
g7
(lp109
g2
(g9
g4
NtRp110
(dp111
g12
(lp112
F0.29045183000000002
aF-0.00019649000000000001
aF0.250081424
asg14
g2
(g15
g4
NtRp113
(dp114
g18
I1
sg19
I00
sg20
(dp115
g24
I1
ssbsg25
g2
(g26
g4
NtRp116
(dp117
g29
Nsg30
Nsg31
g32
(g33
(I0
tS'b'
tRp118
(I1
(I3
tg35
(S'f8'
I0
I1
tRp119
(I3
S'<'
NNNI-1
I-1
I0
tbI00
S':\xb9?\x14U\x12\x17@:\xb9?\x14U\x12\x17@D6\xfd\xcad{\x15@'
tbsg37
Nsg38
g32
(g33
(I0
tS'b'
tRp120
(I1
(I3
I3
tg119
I00
S':\xb9?\x14U\x12\x17@\x00\x00\x00\x00\x00\x00\x00\x00\x00\x00\x00\x00\x00\x00\x00\x00\x00\x00\x00\x00\x00\x00\x00\x80:\xb9?\x14U\x12\x17@\x00\x00\x00\x00\x00\x00\x00\x00\x00\x00\x00\x00\x00\x00\x00\x00\x00\x00\x00\x00\x00\x00\x00\x00D6\xfd\xcad{\x15@'
tbsg40
g32
(g33
(I0
tS'b'
tRp121
(I1
(I3
tg119
I00
S'\x00\x00\x00\x00\x00\x80V@\x00\x00\x00\x00\x00\x80V@\x00\x00\x00\x00\x00\x80V@'
tbsg42
Nsg43
I01
sg44
(dp122
sbsg46
g32
(g33
(I0
tS'b'
tRp123
(I1
(I3
tg119
I00
S'_X^(\x05\xce\xfa?\xd1\xab\xc3f\x8d\x91R\xbf\xfc \x85R/}\xf5?'
tbsg48
(dp124
sg50
I01
sbag2
(g9
g4
NtRp125
(dp126
g12
(lp127
F-0.29045183000000002
aF0.00019649000000000001
aF0.250081424
asg14
g2
(g15
g4
NtRp128
(dp129
g18
I1
sg19
I00
sg20
(dp130
g24
I1
ssbsg25
g116
sg46
g32
(g33
(I0
tS'b'
tRp131
(I1
(I3
tg119
I00
S'_X^(\x05\xce\xfa\xbf\xd1\xab\xc3f\x8d\x91R?\xfc \x85R/}\xf5?'
tbsg48
(dp132
sg50
I01
sbag2
(g9
g4
NtRp133
(dp134
g12
(lp135
F0.00019649000000000001
aF0.29045183000000002
aF0.250081424
asg14
g2
(g15
g4
NtRp136
(dp137
g18
I1
sg19
I00
sg20
(dp138
g24
I1
ssbsg25
g116
sg46
g32
(g33
(I0
tS'b'
tRp139
(I1
(I3
tg119
I00
S'\xd1\xab\xc3f\x8d\x91R?_X^(\x05\xce\xfa?\xfc \x85R/}\xf5?'
tbsg48
(dp140
sg50
I01
sbag2
(g9
g4
NtRp141
(dp142
g12
(lp143
F-0.00019649000000000001
aF-0.29045183000000002
aF0.250081424
asg14
g2
(g15
g4
NtRp144
(dp145
g18
I1
sg19
I00
sg20
(dp146
g24
I1
ssbsg25
g116
sg46
g32
(g33
(I0
tS'b'
tRp147
(I1
(I3
tg119
I00
S'\xd1\xab\xc3f\x8d\x91R\xbf_X^(\x05\xce\xfa\xbf\xfc \x85R/}\xf5?'
tbsg48
(dp148
sg50
I01
sbag2
(g9
g4
NtRp149
(dp150
g12
(lp151
F-0.29045183000000002
aF0.00019649000000000001
aF-0.250081424
asg14
g2
(g15
g4
NtRp152
(dp153
g18
I1
sg19
I00
sg20
(dp154
g24
I1
ssbsg25
g116
sg46
g32
(g33
(I0
tS'b'
tRp155
(I1
(I3
tg119
I00
S'_X^(\x05\xce\xfa\xbf\xd1\xab\xc3f\x8d\x91R?\xfc \x85R/}\xf5\xbf'
tbsg48
(dp156
sg50
I01
sbag2
(g9
g4
NtRp157
(dp158
g12
(lp159
F0.29045183000000002
aF-0.00019649000000000001
aF-0.250081424
asg14
g2
(g15
g4
NtRp160
(dp161
g18
I1
sg19
I00
sg20
(dp162
g24
I1
ssbsg25
g116
sg46
g32
(g33
(I0
tS'b'
tRp163
(I1
(I3
tg119
I00
S'_X^(\x05\xce\xfa?\xd1\xab\xc3f\x8d\x91R\xbf\xfc \x85R/}\xf5\xbf'
tbsg48
(dp164
sg50
I01
sbag2
(g9
g4
NtRp165
(dp166
g12
(lp167
F-0.00019649000000000001
aF-0.29045183000000002
aF-0.250081424
asg14
g2
(g15
g4
NtRp168
(dp169
g18
I1
sg19
I00
sg20
(dp170
g24
I1
ssbsg25
g116
sg46
g32
(g33
(I0
tS'b'
tRp171
(I1
(I3
tg119
I00
S'\xd1\xab\xc3f\x8d\x91R\xbf_X^(\x05\xce\xfa\xbf\xfc \x85R/}\xf5\xbf'
tbsg48
(dp172
sg50
I01
sbag2
(g9
g4
NtRp173
(dp174
g12
(lp175
F0.00019649000000000001
aF0.29045183000000002
aF-0.250081424
asg14
g2
(g15
g4
NtRp176
(dp177
g18
I1
sg19
I00
sg20
(dp178
g24
I1
ssbsg25
g116
sg46
g32
(g33
(I0
tS'b'
tRp179
(I1
(I3
tg119
I00
S'\xd1\xab\xc3f\x8d\x91R?_X^(\x05\xce\xfa?\xfc \x85R/}\xf5\xbf'
tbsg48
(dp180
sg50
I01
sbasg25
g116
sbag2
(g3
g4
NtRp181
(dp182
g7
(lp183
g2
(g9
g4
NtRp184
(dp185
g12
(lp186
F0
aF0
aF0.152464404
asg14
g2
(g15
g4
NtRp187
(dp188
g18
I1
sg19
I00
sg20
(dp189
g24
I1
ssbsg25
g2
(g26
g4
NtRp190
(dp191
g29
Nsg30
Nsg31
g32
(g33
(I0
tS'b'
tRp192
(I1
(I3
tg119
I00
S'\rZ2\r\x16\x0f\x1f@\xf2\xabA\x0e\x16\x0f\x1f@\x1f\xec^8!\xf8\x1a@'
tbsg37
Nsg38
g32
(g33
(I0
tS'b'
tRp193
(I1
(I3
I3
tg119
I00
S'\xd7|9\x0c\x16\x0f\x1f@\x11\xf5\x01\xcf]\x15?\xbf\x00\x00\x00\x00\x00\x00\x00\x80\xf2\xeb}f\xed\x0f\x0f\xc0@\xb69\x89\x99\xe5\x1a@\x00\x00\x00\x00\x00\x00\x00\x00\x00\x00\x00\x00\x00\x00\x00\x80\x00\x00\x00\x00\x00\x00\x00\x80\x1f\xec^8!\xf8\x1a@'
tbsg40
g32
(g33
(I0
tS'b'
tRp194
(I1
(I3
tg119
I00
S'\x00\x00\x00\x00\x00\x80V@\x00\x00\x00\x00\x00\x80V@v\x04U\xaer\x00^@'
tbsg42
Nsg43
I00
sg44
(dp195
sbsg46
g32
(g33
(I0
tS'b'
tRp196
(I1
(I3
tg119
I00
S"\x00\x00\x00\x00\x00\x00\x00\x00\x00\x00\x00\x00\x00\x00\x00\x00\x0b8'?\x89r\xf0?"
tbsg48
(dp197
sg50
I01
sbag2
(g9
g4
NtRp198
(dp199
g12
(lp200
F0
aF0
aF0.46445891700000003
asg14
g2
(g15
g4
NtRp201
(dp202
g18
I1
sg19
I00
sg20
(dp203
g24
I1
ssbsg25
g190
sg46
g32
(g33
(I0
tS'b'
tRp204
(I1
(I3
tg119
I00
S'\x00\x00\x00\x00\x00\x00\x00\x00\x00\x00\x00\x00\x00\x00\x00\x00\xc7X]\x88^\r\t@'
tbsg48
(dp205
sg50
I01
sbag2
(g9
g4
NtRp206
(dp207
g12
(lp208
F0.5
aF0
aF0.16826925100000001
asg14
g2
(g15
g4
NtRp209
(dp210
g18
I1
sg19
I00
sg20
(dp211
g24
I1
ssbsg25
g190
sg46
g32
(g33
(I0
tS'b'
tRp212
(I1
(I3
tg119
I00
S"\xd7|9\x0c\x16\x0f\x0f@\x11\xf5\x01\xcf]\x15/\xbf\xa2\xeaz\xcf\x02'\xf2?"
tbsg48
(dp213
sg50
I01
sbag2
(g9
g4
NtRp214
(dp215
g12
(lp216
F0.5
aF0.5
aF0.16826925100000001
asg14
g2
(g15
g4
NtRp217
(dp218
g18
I1
sg19
I00
sg20
(dp219
g24
I1
ssbsg25
g190
sg46
g32
(g33
(I0
tS'b'
tRp220
(I1
(I3
tg119
I00
S"\xbc\r\xf5\xb1>\x0e\xff?8z\xc23\x1d\xe5\n@\xa2\xeaz\xcf\x02'\xf2?"
tbsg48
(dp221
sg50
I01
sbag2
(g9
g4
NtRp222
(dp223
g12
(lp224
F-0
aF0.5
aF0.16826925100000001
asg14
g2
(g15
g4
NtRp225
(dp226
g18
I1
sg19
I00
sg20
(dp227
g24
I1
ssbsg25
g190
sg46
g32
(g33
(I0
tS'b'
tRp228
(I1
(I3
tg119
I00
S"\xf2\xeb}f\xed\x0f\xff\xbf@\xb69\x89\x99\xe5\n@\xa2\xeaz\xcf\x02'\xf2?"
tbsg48
(dp229
sg50
I01
sbag2
(g9
g4
NtRp230
(dp231
g12
(lp232
F0.5
aF0
aF0.48129264199999999
asg14
g2
(g15
g4
NtRp233
(dp234
g18
I1
sg19
I00
sg20
(dp235
g24
I1
ssbsg25
g190
sg46
g32
(g33
(I0
tS'b'
tRp236
(I1
(I3
tg119
I00
S'\xd7|9\x0c\x16\x0f\x0f@\x11\xf5\x01\xcf]\x15/\xbfq]mO\xd0\xf5\t@'
tbsg48
(dp237
sg50
I01
sbag2
(g9
g4
NtRp238
(dp239
g12
(lp240
F0.5
aF0.5
aF0.48129264199999999
asg14
g2
(g15
g4
NtRp241
(dp242
g18
I1
sg19
I00
sg20
(dp243
g24
I1
ssbsg25
g190
sg46
g32
(g33
(I0
tS'b'
tRp244
(I1
(I3
tg119
I00
S'\xbc\r\xf5\xb1>\x0e\xff?8z\xc23\x1d\xe5\n@q]mO\xd0\xf5\t@'
tbsg48
(dp245
sg50
I01
sbag2
(g9
g4
NtRp246
(dp247
g12
(lp248
F-0
aF0.5
aF0.48129264199999999
asg14
g2
(g15
g4
NtRp249
(dp250
g18
I1
sg19
I00
sg20
(dp251
g24
I1
ssbsg25
g190
sg46
g32
(g33
(I0
tS'b'
tRp252
(I1
(I3
tg119
I00
S'\xf2\xeb}f\xed\x0f\xff\xbf@\xb69\x89\x99\xe5\n@q]mO\xd0\xf5\t@'
tbsg48
(dp253
sg50
I01
sbasg25
g190
sbag2
(g3
g4
NtRp254
(dp255
g7
(lp256
g2
(g9
g4
NtRp257
(dp258
g12
(lp259
F0.25001697699999997
aF0.25001697699999997
aF0.25001697699999997
asg14
g2
(g15
g4
NtRp260
(dp261
g18
I1
sg19
I00
sg20
(dp262
g24
I1
ssbsg25
g2
(g26
g4
NtRp263
(dp264
g29
Nsg30
Nsg31
g32
(g33
(I0
tS'b'
tRp265
(I1
(I3
tg119
I00
S'\xdbK\xba0I\xe0\x15@\xdbK\xba0I\xe0\x15@\xdbK\xba0I\xe0\x15@'
tbsg37
Nsg38
g32
(g33
(I0
tS'b'
tRp266
(I1
(I3
I3
tg119
I00
S'\xdbK\xba0I\xe0\x15@\x00\x00\x00\x00\x00\x00\x00\x00\x00\x00\x00\x00\x00\x00\x00\x00\x00\x00\x00\x00\x00\x00\x00\x00\xdbK\xba0I\xe0\x15@\x00\x00\x00\x00\x00\x00\x00\x00\x00\x00\x00\x00\x00\x00\x00\x00\x00\x00\x00\x00\x00\x00\x00\x00\xdbK\xba0I\xe0\x15@'
tbsg40
g32
(g33
(I0
tS'b'
tRp267
(I1
(I3
tg119
I00
S'\x00\x00\x00\x00\x00\x80V@\x00\x00\x00\x00\x00\x80V@\x00\x00\x00\x00\x00\x80V@'
tbsg42
Nsg43
I01
sg44
(dp268
sbsg46
g32
(g33
(I0
tS'b'
tRp269
(I1
(I3
tg119
I00
S'MAX\x8c\xaa\xe0\xf5?MAX\x8c\xaa\xe0\xf5?MAX\x8c\xaa\xe0\xf5?'
tbsg48
(dp270
sg50
I01
sbag2
(g9
g4
NtRp271
(dp272
g12
(lp273
F0.75001697700000003
aF0.249983023
aF-0.25001697699999997
asg14
g2
(g15
g4
NtRp274
(dp275
g18
I1
sg19
I00
sg20
(dp276
g24
I1
ssbsg25
g263
sg46
g32
(g33
(I0
tS'b'
tRp277
(I1
(I3
tg119
I00
S'A6s;Oh\x10@hV\x1c\xd5\xe7\xdf\xf5?MAX\x8c\xaa\xe0\xf5\xbf'
tbsg48
(dp278
sg50
I01
sbag2
(g9
g4
NtRp279
(dp280
g12
(lp281
F-0.25001697699999997
aF0.75001697700000003
aF0.249983023
asg14
g2
(g15
g4
NtRp282
(dp283
g18
I1
sg19
I00
sg20
(dp284
g24
I1
ssbsg25
g263
sg46
g32
(g33
(I0
tS'b'
tRp285
(I1
(I3
tg119
I00
S'MAX\x8c\xaa\xe0\xf5\xbfA6s;Oh\x10@hV\x1c\xd5\xe7\xdf\xf5?'
tbsg48
(dp286
sg50
I01
sbag2
(g9
g4
NtRp287
(dp288
g12
(lp289
F0.249983023
aF-0.25001697699999997
aF0.75001697700000003
asg14
g2
(g15
g4
NtRp290
(dp291
g18
I1
sg19
I00
sg20
(dp292
g24
I1
ssbsg25
g263
sg46
g32
(g33
(I0
tS'b'
tRp293
(I1
(I3
tg119
I00
S'hV\x1c\xd5\xe7\xdf\xf5?MAX\x8c\xaa\xe0\xf5\xbfA6s;Oh\x10@'
tbsg48
(dp294
sg50
I01
sbag2
(g9
g4
NtRp295
(dp296
g12
(lp297
F1.000016977
aF0.50001697700000003
aF-1.6977e-05
asg14
g2
(g15
g4
NtRp298
(dp299
g18
I1
sg19
I00
sg20
(dp300
g24
I1
ssbsg25
g263
sg46
g32
(g33
(I0
tS'b'
tRp301
(I1
(I3
tg119
I00
S'8\xc9\xa1\x87a\xe0\x15@\x95F\x89\xdey\xe0\x05@\x04\xbe\\}\xe7V\x18\xbf'
tbsg48
(dp302
sg50
I01
sbag2
(g9
g4
NtRp303
(dp304
g12
(lp305
F0.49998302300000003
aF0.49998302300000003
aF0.49998302300000003
asg14
g2
(g15
g4
NtRp306
(dp307
g18
I1
sg19
I00
sg20
(dp308
g24
I1
ssbsg25
g263
sg46
g32
(g33
(I0
tS'b'
tRp309
(I1
(I3
tg119
I00
S'"Q\xeb\x82\x18\xe0\x05@"Q\xeb\x82\x18\xe0\x05@"Q\xeb\x82\x18\xe0\x05@'
tbsg48
(dp310
sg50
I01
sbag2
(g9
g4
NtRp311
(dp312
g12
(lp313
F0.50001697700000003
aF-1.6977e-05
aF1.000016977
asg14
g2
(g15
g4
NtRp314
(dp315
g18
I1
sg19
I00
sg20
(dp316
g24
I1
ssbsg25
g263
sg46
g32
(g33
(I0
tS'b'
tRp317
(I1
(I3
tg119
I00
S'\x95F\x89\xdey\xe0\x05@\x04\xbe\\}\xe7V\x18\xbf8\xc9\xa1\x87a\xe0\x15@'
tbsg48
(dp318
sg50
I01
sbag2
(g9
g4
NtRp319
(dp320
g12
(lp321
F-1.6977e-05
aF1.000016977
aF0.50001697700000003
asg14
g2
(g15
g4
NtRp322
(dp323
g18
I1
sg19
I00
sg20
(dp324
g24
I1
ssbsg25
g263
sg46
g32
(g33
(I0
tS'b'
tRp325
(I1
(I3
tg119
I00
S'\x04\xbe\\}\xe7V\x18\xbf8\xc9\xa1\x87a\xe0\x15@\x95F\x89\xdey\xe0\x05@'
tbsg48
(dp326
sg50
I01
sbasg25
g263
sbag2
(g3
g4
NtRp327
(dp328
g7
(lp329
g2
(g9
g4
NtRp330
(dp331
g12
(lp332
F0.132193859
aF1.0161887039999999
aF0.49824718099999998
asg14
g2
(g15
g4
NtRp333
(dp334
g18
I1
sg19
I00
sg20
(dp335
g24
I1
ssbsg25
g2
(g26
g4
NtRp336
(dp337
g29
Nsg30
Nsg31
g32
(g33
(I0
tS'b'
tRp338
(I1
(I3
tg119
I00
S' 65)5\xaa\r@jS8,TY\x08@\x12sq\x9dD^%@'
tbsg37
Nsg38
g32
(g33
(I0
tS'b'
tRp339
(I1
(I3
I3
tg119
I00
S' 65)5\xaa\r@\x00\x00\x00\x00\x00\x00\x00\x00\x00\x00\x00\x00\x00\x00\x00\x00\x00\x00\x00\x00\x00\x00\x00\x00jS8,TY\x08@\x00\x00\x00\x00\x00\x00\x00\x00\x00\x00\x00\x00\x00\x00\x00\x00\x00\x00\x00\x00\x00\x00\x00\x00\x12sq\x9dD^%@'
tbsg40
g32
(g33
(I0
tS'b'
tRp340
(I1
(I3
tg119
I00
S'\x00\x00\x00\x00\x00\x80V@\x00\x00\x00\x00\x00\x80V@\x00\x00\x00\x00\x00\x80V@'
tbsg42
Nsg43
I01
sg44
(dp341
sbsg46
g32
(g33
(I0
tS'b'
tRp342
(I1
(I3
tg119
I00
S'\xd3\x91\x81\xccB_\xdf?P\xd1/\x02=\xbe\x08@\xa8%\x06\\\x17K\x15@'
tbsg48
(dp343
sg50
I01
sbag2
(g9
g4
NtRp344
(dp345
g12
(lp346
F0.63219385900000002
aF-0.51618870400000005
aF-0.49824718099999998
asg14
g2
(g15
g4
NtRp347
(dp348
g18
I1
sg19
I00
sg20
(dp349
g24
I1
ssbsg25
g336
sg46
g32
(g33
(I0
tS'b'
tRp350
(I1
(I3
tg119
I00
S"K\xcd*\xee\x02\xc1\x02@7O'\xd8%#\xf9\xbf\xa8%\x06\\\x17K\x15\xc0"
tbsg48
(dp351
sg50
I01
sbag2
(g9
g4
NtRp352
(dp353
g12
(lp354
F-0.132193859
aF1.5161887039999999
aF0.0017528190000000001
asg14
g2
(g15
g4
NtRp355
(dp356
g18
I1
sg19
I00
sg20
(dp357
g24
I1
ssbsg25
g336
sg46
g32
(g33
(I0
tS'b'
tRp358
(I1
(I3
tg119
I00
S'\xd3\x91\x81\xccB_\xdf\xbf\x82\xfd%\x8csu\x12@\x04jMkA-\x93?'
tbsg48
(dp359
sg50
I01
sbag2
(g9
g4
NtRp360
(dp361
g12
(lp362
F0.36780614099999998
aF-1.0161887039999999
aF0.99824718099999998
asg14
g2
(g15
g4
NtRp363
(dp364
g18
I1
sg19
I00
sg20
(dp365
g24
I1
ssbsg25
g336
sg46
g32
(g33
(I0
tS'b'
tRp366
(I1
(I3
tg119
I00
S'\xab\xd1\x14vd\xd2\xf5?P\xd1/\x02=\xbe\x08\xc0]\xcc\xbb\xfc\xadT%@'
tbsg48
(dp367
sg50
I01
sbag2
(g9
g4
NtRp368
(dp369
g12
(lp370
F0.73958107500000003
aF0.61095191000000004
aF0.251157032
asg14
g2
(g15
g4
NtRp371
(dp372
g18
I1
sg19
I00
sg20
(dp373
g24
I1
ssbsg25
g336
sg46
g32
(g33
(I0
tS'b'
tRp374
(I1
(I3
tg119
I00
S'\x9f\x88\x84B\x88\xf0\x05@\x96\xce\xd0<\x87\xc0\xfd?R!\xf3\xca\x95w\x05@'
tbsg48
(dp375
sg50
I01
sbag2
(g9
g4
NtRp376
(dp377
g12
(lp378
F1.239581075
aF-0.11095191
aF-0.251157032
asg14
g2
(g15
g4
NtRp379
(dp380
g18
I1
sg19
I00
sg20
(dp381
g24
I1
ssbsg25
g336
sg46
g32
(g33
(I0
tS'b'
tRp382
(I1
(I3
tg119
I00
S'\xd8\x91\x8fk\xd1b\x12@\xae\xecaB\xcc\x9c\xd5\xbfR!\xf3\xca\x95w\x05\xc0'
tbsg48
(dp383
sg50
I01
sbag2
(g9
g4
NtRp384
(dp385
g12
(lp386
F-0.73958107500000003
aF1.11095191
aF0.248842968
asg14
g2
(g15
g4
NtRp387
(dp388
g18
I1
sg19
I00
sg20
(dp389
g24
I1
ssbsg25
g336
sg46
g32
(g33
(I0
tS'b'
tRp390
(I1
(I3
tg119
I00
S'\x9f\x88\x84B\x88\xf0\x05\xc0\x00\x91\x84\xb4\xed\x0c\x0b@\xd2\xc4\xefo\xf3D\x05@'
tbsg48
(dp391
sg50
I01
sbag2
(g9
g4
NtRp392
(dp393
g12
(lp394
F-0.239581075
aF-0.61095191000000004
aF0.75115703199999995
asg14
g2
(g15
g4
NtRp395
(dp396
g18
I1
sg19
I00
sg20
(dp397
g24
I1
ssbsg25
g336
sg46
g32
(g33
(I0
tS'b'
tRp398
(I1
(I3
tg119
I00
S'<\xb6\xa7\xb7\xb6m\xec\xbf\x96\xce\xd0<\x87\xc0\xfd\xbf\xdd\x81u\xc1\x07\r @'
tbsg48
(dp399
sg50
I01
sbasg25
g336
sbag2
(g3
g4
NtRp400
(dp401
g7
(lp402
g2
(g9
g4
NtRp403
(dp404
g12
(lp405
F0.79787376799999998
aF-0.79787376899999995
aF0.12084039100000001
asg14
g2
(g15
g4
NtRp406
(dp407
g18
I1
sg19
I00
sg20
(dp408
g24
I1
ssbsg25
g2
(g26
g4
NtRp409
(dp410
g29
Nsg30
Nsg31
g32
(g33
(I0
tS'b'
tRp411
(I1
(I3
tg119
I00
S'\x85\x9d\x1b\x00\x95\xcb\x1a@\x04+\x9e\xeb\x94\xcb\x1a@^\x8a\x01\xcbw\xdd"@'
tbsg37
Nsg38
g32
(g33
(I0
tS'b'
tRp412
(I1
(I3
I3
tg119
I00
S'\x84\x9d\x1b\x00\x95\xcb\x1a@+\xbaNSf\xabt\xbe\x00\x00\x00\x00\x00\x00\x00\x00O\x0c\xfe\xbb\x94\xcb\n\xc0\xa9\xc1>~\x924\x17@\x00\x00\x00\x00\x00\x00\x00\x80\x00\x00\x00\x00\x00\x00\x00\x00\x00\x00\x00\x00\x00\x00\x00\x00^\x8a\x01\xcbw\xdd"@'
tbsg40
g32
(g33
(I0
tS'b'
tRp413
(I1
(I3
tg119
I00
S'\x00\x00\x00\x00\x00\x80V@\x00\x00\x00\x00\x00\x80V@\xb3?\x10\xf4\xff\xff]@'
tbsg42
Nsg43
I00
sg44
(dp414
sbsg46
g32
(g33
(I0
tS'b'
tRp415
(I1
(I3
tg119
I00
S'\xdd\xdaaj\xcf\x08 @\xab\xeb\xcf\xaa\xd3\x83\x12\xc0.V\x8b#\xc2<\xf2?'
tbsg48
(dp416
sg50
I01
sbag2
(g9
g4
NtRp417
(dp418
g12
(lp419
F1.5957475350000001
aF0.79787376700000001
aF0.12084039100000001
asg14
g2
(g15
g4
NtRp420
(dp421
g18
I1
sg19
I00
sg20
(dp422
g24
I1
ssbsg25
g409
sg46
g32
(g33
(I0
tS'b'
tRp423
(I1
(I3
tg119
I00
S'#\xcdT\x85\xcf\x08 @\xb0/\xaa\x9d\xd3\x83\x12@.V\x8b#\xc2<\xf2?'
tbsg48
(dp424
sg50
I01
sbag2
(g9
g4
NtRp425
(dp426
g12
(lp427
F0.79787376700000001
aF1.595747537
aF0.12084039100000001
asg14
g2
(g15
g4
NtRp428
(dp429
g18
I1
sg19
I00
sg20
(dp430
g24
I1
ssbsg25
g409
sg46
g32
(g33
(I0
tS'b'
tRp431
(I1
(I3
tg119
I00
S'd\xb1\x16\xdb,\xd6\xaa>\xf6\xe2n\xa4\xd3\x83"@.V\x8b#\xc2<\xf2?'
tbsg48
(dp432
sg50
I01
sbag2
(g9
g4
NtRp433
(dp434
g12
(lp435
F-0.79787376799999998
aF0.79787376899999995
aF0.12084039100000001
asg14
g2
(g15
g4
NtRp436
(dp437
g18
I1
sg19
I00
sg20
(dp438
g24
I1
ssbsg25
g409
sg46
g32
(g33
(I0
tS'b'
tRp439
(I1
(I3
tg119
I00
S'\xdd\xdaaj\xcf\x08 \xc0\xab\xeb\xcf\xaa\xd3\x83\x12@.V\x8b#\xc2<\xf2?'
tbsg48
(dp440
sg50
I01
sbag2
(g9
g4
NtRp441
(dp442
g12
(lp443
F-1.5957475350000001
aF-0.79787376700000001
aF0.12084039100000001
asg14
g2
(g15
g4
NtRp444
(dp445
g18
I1
sg19
I00
sg20
(dp446
g24
I1
ssbsg25
g409
sg46
g32
(g33
(I0
tS'b'
tRp447
(I1
(I3
tg119
I00
S'#\xcdT\x85\xcf\x08 \xc0\xb0/\xaa\x9d\xd3\x83\x12\xc0.V\x8b#\xc2<\xf2?'
tbsg48
(dp448
sg50
I01
sbag2
(g9
g4
NtRp449
(dp450
g12
(lp451
F-0.79787376700000001
aF-1.595747537
aF0.12084039100000001
asg14
g2
(g15
g4
NtRp452
(dp453
g18
I1
sg19
I00
sg20
(dp454
g24
I1
ssbsg25
g409
sg46
g32
(g33
(I0
tS'b'
tRp455
(I1
(I3
tg119
I00
S'd\xb1\x16\xdb,\xd6\xaa\xbe\xf6\xe2n\xa4\xd3\x83"\xc0.V\x8b#\xc2<\xf2?'
tbsg48
(dp456
sg50
I01
sbag2
(g9
g4
NtRp457
(dp458
g12
(lp459
F0.33333299999999999
aF0.66666700000000001
aF0.31580882599999999
asg14
g2
(g15
g4
NtRp460
(dp461
g18
I1
sg19
I00
sg20
(dp462
g24
I1
ssbsg25
g409
sg46
g32
(g33
(I0
tS'b'
tRp463
(I1
(I3
tg119
I00
S'\xf0\xd4\x968:B\xc9\xbe`\x9e\x18S\xc4\xf0\x0e@\xc3v\x8f \xc1\xd4\x07@'
tbsg48
(dp464
sg50
I01
sbag2
(g9
g4
NtRp465
(dp466
g12
(lp467
F0.66666700000000001
aF0.33333299999999999
aF0.31580882599999999
asg14
g2
(g15
g4
NtRp468
(dp469
g18
I1
sg19
I00
sg20
(dp470
g24
I1
ssbsg25
g409
sg46
g32
(g33
(I0
tS'b'
tRp471
(I1
(I3
tg119
I00
S'B\xd2\\\xd8\x96\xcb\n@\x90c\x1e>\xc1\xf0\xfe?\xc3v\x8f \xc1\xd4\x07@'
tbsg48
(dp472
sg50
I01
sbasg25
g409
sbag2
(g3
g4
NtRp473
(dp474
g7
(lp475
g2
(g9
g4
NtRp476
(dp477
g12
(lp478
F0
aF0.5
aF0.87500261800000001
asg14
g2
(g15
g4
NtRp479
(dp480
g18
I1
sg19
I00
sg20
(dp481
g24
I1
ssbsg25
g2
(g26
g4
NtRp482
(dp483
g29
Nsg30
Nsg31
g32
(g33
(I0
tS'b'
tRp484
(I1
(I3
tg119
I00
S'\x91\xd7\xde\x02d\x80!@\x91\xd7\xde\x02d\x80!@\xf5\xb2g{f\xa5!@'
tbsg37
Nsg38
g32
(g33
(I0
tS'b'
tRp485
(I1
(I3
I3
tg119
I00
S'\x91\xd7\xde\x02d\x80!@\x00\x00\x00\x00\x00\x00\x00\x00\x00\x00\x00\x00\x00\x00\x00\x00\x00\x00\x00\x00\x00\x00\x00\x00\x91\xd7\xde\x02d\x80!@\x00\x00\x00\x00\x00\x00\x00\x00\x00\x00\x00\x00\x00\x00\x00\x00\x00\x00\x00\x00\x00\x00\x00\x00\xf5\xb2g{f\xa5!@'
tbsg40
g32
(g33
(I0
tS'b'
tRp486
(I1
(I3
tg119
I00
S'\x00\x00\x00\x00\x00\x80V@\x00\x00\x00\x00\x00\x80V@\x00\x00\x00\x00\x00\x80V@'
tbsg42
Nsg43
I01
sg44
(dp487
sbsg46
g32
(g33
(I0
tS'b'
tRp488
(I1
(I3
tg119
I00
S'\x00\x00\x00\x00\x00\x00\x00\x00\x91\xd7\xde\x02d\x80\x11@\xd2\xc6\x16fy\xe1\x1e@'
tbsg48
(dp489
sg50
I01
sbag2
(g9
g4
NtRp490
(dp491
g12
(lp492
F0
aF0.5
aF-0.37500313400000002
asg14
g2
(g15
g4
NtRp493
(dp494
g18
I1
sg19
I00
sg20
(dp495
g24
I1
ssbsg25
g482
sg46
g32
(g33
(I0
tS'b'
tRp496
(I1
(I3
tg119
I00
S'\x00\x00\x00\x00\x00\x00\x00\x00\x91\xd7\xde\x02d\x80\x11@\x8dzk8(x\n\xc0'
tbsg48
(dp497
sg50
I01
sbag2
(g9
g4
NtRp498
(dp499
g12
(lp500
F0.5
aF0
aF-0.37500313400000002
asg14
g2
(g15
g4
NtRp501
(dp502
g18
I1
sg19
I00
sg20
(dp503
g24
I1
ssbsg25
g482
sg46
g32
(g33
(I0
tS'b'
tRp504
(I1
(I3
tg119
I00
S'\x91\xd7\xde\x02d\x80\x11@\x00\x00\x00\x00\x00\x00\x00\x00\x8dzk8(x\n\xc0'
tbsg48
(dp505
sg50
I01
sbag2
(g9
g4
NtRp506
(dp507
g12
(lp508
F0.5
aF0
aF0.87500261800000001
asg14
g2
(g15
g4
NtRp509
(dp510
g18
I1
sg19
I00
sg20
(dp511
g24
I1
ssbsg25
g482
sg46
g32
(g33
(I0
tS'b'
tRp512
(I1
(I3
tg119
I00
S'\x91\xd7\xde\x02d\x80\x11@\x00\x00\x00\x00\x00\x00\x00\x00\xd2\xc6\x16fy\xe1\x1e@'
tbsg48
(dp513
sg50
I01
sbag2
(g9
g4
NtRp514
(dp515
g12
(lp516
F0
aF0.5
aF-0.87500261800000001
asg14
g2
(g15
g4
NtRp517
(dp518
g18
I1
sg19
I00
sg20
(dp519
g24
I1
ssbsg25
g482
sg46
g32
(g33
(I0
tS'b'
tRp520
(I1
(I3
tg119
I00
S'\x00\x00\x00\x00\x00\x00\x00\x00\x91\xd7\xde\x02d\x80\x11@\xd2\xc6\x16fy\xe1\x1e\xc0'
tbsg48
(dp521
sg50
I01
sbag2
(g9
g4
NtRp522
(dp523
g12
(lp524
F0
aF0.5
aF1.375003134
asg14
g2
(g15
g4
NtRp525
(dp526
g18
I1
sg19
I00
sg20
(dp527
g24
I1
ssbsg25
g482
sg46
g32
(g33
(I0
tS'b'
tRp528
(I1
(I3
tg119
I00
S'\x00\x00\x00\x00\x00\x00\x00\x00\x91\xd7\xde\x02d\x80\x11@\x98\x91\x82\x89pC(@'
tbsg48
(dp529
sg50
I01
sbag2
(g9
g4
NtRp530
(dp531
g12
(lp532
F0.5
aF0
aF1.375003134
asg14
g2
(g15
g4
NtRp533
(dp534
g18
I1
sg19
I00
sg20
(dp535
g24
I1
ssbsg25
g482
sg46
g32
(g33
(I0
tS'b'
tRp536
(I1
(I3
tg119
I00
S'\x91\xd7\xde\x02d\x80\x11@\x00\x00\x00\x00\x00\x00\x00\x00\x98\x91\x82\x89pC(@'
tbsg48
(dp537
sg50
I01
sbag2
(g9
g4
NtRp538
(dp539
g12
(lp540
F0.5
aF0
aF-0.87500261800000001
asg14
g2
(g15
g4
NtRp541
(dp542
g18
I1
sg19
I00
sg20
(dp543
g24
I1
ssbsg25
g482
sg46
g32
(g33
(I0
tS'b'
tRp544
(I1
(I3
tg119
I00
S'\x91\xd7\xde\x02d\x80\x11@\x00\x00\x00\x00\x00\x00\x00\x00\xd2\xc6\x16fy\xe1\x1e\xc0'
tbsg48
(dp545
sg50
I01
sbasg25
g482
sbag2
(g3
g4
NtRp546
(dp547
g7
(lp548
g2
(g9
g4
NtRp549
(dp550
g12
(lp551
F0.33333299999999999
aF0.66666700000000001
aF0.597035596
asg14
g2
(g15
g4
NtRp552
(dp553
g18
I1
sg19
I00
sg20
(dp554
g24
I1
ssbsg25
g2
(g26
g4
NtRp555
(dp556
g29
Nsg30
Nsg31
g32
(g33
(I0
tS'b'
tRp557
(I1
(I3
tg119
I00
S'P\xdfS\xb5\xb4\x01\x1e@\xb9V\xc3\xa7\xb4\x01\x1e@\x9cV\xd2\xd6\xfd\xa5\x03@'
tbsg37
Nsg38
g32
(g33
(I0
tS'b'
tRp558
(I1
(I3
I3
tg119
I00
S'P\xdfS\xb5\xb4\x01\x1e@\xc1\x9dv\xbe\xc0(h\xbe\x00\x00\x00\x00\x00\x00\x00\x80t\x85(s\xb4\x01\x0e\xc0\x11k\x96p\x8d\xfc\x19@\x00\x00\x00\x00\x00\x00\x00\x80\x00\x00\x00\x00\x00\x00\x00\x80\x00\x00\x00\x00\x00\x00\x00\x80\x9cV\xd2\xd6\xfd\xa5\x03@'
tbsg40
g32
(g33
(I0
tS'b'
tRp559
(I1
(I3
tg119
I00
S'\x00\x00\x00\x00\x00\x80V@\x00\x00\x00\x00\x00\x80V@{\x8b\xf1\xf2\xff\xff]@'
tbsg42
Nsg43
I00
sg44
(dp560
sbsg46
g32
(g33
(I0
tS'b'
tRp561
(I1
(I3
tg119
I00
S'\xec\xce\x11\xb9\x0b\xb5\xcc\xbe8\xaf\x0b\x86\tS\x11@\x8b=&\x03+v\xf7?'
tbsg48
(dp562
sg50
I01
sbag2
(g9
g4
NtRp563
(dp564
g12
(lp565
F0.66666700000000001
aF0.33333299999999999
aF-0.597035596
asg14
g2
(g15
g4
NtRp566
(dp567
g18
I1
sg19
I00
sg20
(dp568
g24
I1
ssbsg25
g555
sg46
g32
(g33
(I0
tS'b'
tRp569
(I1
(I3
tg119
I00
S'\xbd\xf4\xcf\xc2\xb6\x01\x0e@\x82G\x0b\xcf\x07S\x01@\x8b=&\x03+v\xf7\xbf'
tbsg48
(dp570
sg50
I01
sbag2
(g9
g4
NtRp571
(dp572
g12
(lp573
F0.339467766
aF-0
aF-0
asg14
g2
(g15
g4
NtRp574
(dp575
g18
I1
sg19
I00
sg20
(dp576
g24
I1
ssbsg25
g555
sg46
g32
(g33
(I0
tS'b'
tRp577
(I1
(I3
tg119
I00
S'\x07\x91J\x11b_\x04@\xa7\x9a\xcdj\x0cgP\xbe\x00\x00\x00\x00\x00\x00\x00\x00'
tbsg48
(dp578
sg50
I01
sbag2
(g9
g4
NtRp579
(dp580
g12
(lp581
F-0
aF0.33946776699999998
aF-0
asg14
g2
(g15
g4
NtRp582
(dp583
g18
I1
sg19
I00
sg20
(dp584
g24
I1
ssbsg25
g555
sg46
g32
(g33
(I0
tS'b'
tRp585
(I1
(I3
tg119
I00
S'/\x98_\xe5a_\xf4\xbf\x89\xba\x1f\x7f\xa7\xa4\x01@\x00\x00\x00\x00\x00\x00\x00\x00'
tbsg48
(dp586
sg50
I01
sbag2
(g9
g4
NtRp587
(dp588
g12
(lp589
F-0.339467766
aF-0.339467766
aF-0
asg14
g2
(g15
g4
NtRp590
(dp591
g18
I1
sg19
I00
sg20
(dp592
g24
I1
ssbsg25
g555
sg46
g32
(g33
(I0
tS'b'
tRp593
(I1
(I3
tg119
I00
S'7K7>b_\xf4\xbf\xff\x9f3|\xa7\xa4\x01\xc0\x00\x00\x00\x00\x00\x00\x00\x00'
tbsg48
(dp594
sg50
I01
sbag2
(g9
g4
NtRp595
(dp596
g12
(lp597
F-0.339467766
aF0
aF0
asg14
g2
(g15
g4
NtRp598
(dp599
g18
I1
sg19
I00
sg20
(dp600
g24
I1
ssbsg25
g555
sg46
g32
(g33
(I0
tS'b'
tRp601
(I1
(I3
tg119
I00
S'\x07\x91J\x11b_\x04\xc0\xa7\x9a\xcdj\x0cgP>\x00\x00\x00\x00\x00\x00\x00\x00'
tbsg48
(dp602
sg50
I01
sbag2
(g9
g4
NtRp603
(dp604
g12
(lp605
F0
aF-0.33946776699999998
aF0
asg14
g2
(g15
g4
NtRp606
(dp607
g18
I1
sg19
I00
sg20
(dp608
g24
I1
ssbsg25
g555
sg46
g32
(g33
(I0
tS'b'
tRp609
(I1
(I3
tg119
I00
S'/\x98_\xe5a_\xf4?\x89\xba\x1f\x7f\xa7\xa4\x01\xc0\x00\x00\x00\x00\x00\x00\x00\x00'
tbsg48
(dp610
sg50
I01
sbag2
(g9
g4
NtRp611
(dp612
g12
(lp613
F0.339467766
aF0.339467766
aF0
asg14
g2
(g15
g4
NtRp614
(dp615
g18
I1
sg19
I00
sg20
(dp616
g24
I1
ssbsg25
g555
sg46
g32
(g33
(I0
tS'b'
tRp617
(I1
(I3
tg119
I00
S'7K7>b_\xf4?\xff\x9f3|\xa7\xa4\x01@\x00\x00\x00\x00\x00\x00\x00\x00'
tbsg48
(dp618
sg50
I01
sbasg25
g555
sbag2
(g3
g4
NtRp619
(dp620
g7
(lp621
g2
(g9
g4
NtRp622
(dp623
g12
(lp624
F1.041275132
aF0.31109543299999998
aF1.0367994890000001
asg14
g2
(g15
g4
NtRp625
(dp626
g18
I1
sg19
I00
sg20
(dp627
g24
I1
ssbsg25
g2
(g26
g4
NtRp628
(dp629
g29
Nsg30
Nsg31
g32
(g33
(I0
tS'b'
tRp630
(I1
(I3
tg35
(S'f8'
I0
I1
tRp631
(I3
S'<'
NNNI-1
I-1
I0
tbI00
S'\xdc\x0e\x0e\xb5\xfe\xf5\x16@\x9d\xb3c\xa7F\xf5\x16@\xdaln2\xe9\xf2\x16@'
tbsg37
Nsg38
g32
(g33
(I0
tS'b'
tRp632
(I1
(I3
I3
tg631
I00
S'\xe2.\xe6\xda\\\x9c\n\xc0\xc0J\x15\xf7\xe5\x15\n@\xca\x0c\xd2\x8eF\xd6\n@\xf6\x87c\xe6\xcd\xcc\n@-\xb3\xddD\xfa#\n\xc0\x9f\xee\xde\x7f\x9b\x95\n@\xe4"u=\xfc\x9d\n@\xfb-\x11\xda8\x17\n@$\x808\x9b\xd0\xc8\n\xc0'
tbsg40
g32
(g33
(I0
tS'b'
tRp633
(I1
(I3
tg631
I00
S'-\xacjM\x186[@\xc1\x0f`f\x99\xaf[@xYF\x17\x0e7[@'
tbsg42
Nsg43
I00
sg44
(dp634
sbsg46
g32
(g33
(I0
tS'b'
tRp635
(I1
(I3
tg631
I00
S's\x82\x1bo\x1ds\xf0?u\x80\x02\x93Y\n\x17@\x06\xcc\x1f\xf9\xcb\xe3\xf0?'
tbsg48
(dp636
sg50
I01
sbag2
(g9
g4
NtRp637
(dp638
g12
(lp639
F-0.76293317900000002
aF0.0041479459999999996
aF-0.96578709900000004
asg14
g2
(g15
g4
NtRp640
(dp641
g18
I1
sg19
I00
sg20
(dp642
g24
I1
ssbsg25
g628
sg46
g32
(g33
(I0
tS'b'
tRp643
(I1
(I3
tg631
I00
S"\x9d\xef\x06\xe1\x17,\xe5\xbfe\xa6\x8e\x98\xa0\x9a\x16\xc0'S1\xcf\x90\x03\xe6?"
tbsg48
(dp644
sg50
I01
sbag2
(g9
g4
NtRp645
(dp646
g12
(lp647
F1.0442084780000001
aF-0.48988037699999998
aF-0.267287777
asg14
g2
(g15
g4
NtRp648
(dp649
g18
I1
sg19
I00
sg20
(dp650
g24
I1
ssbsg25
g628
sg46
g32
(g33
(I0
tS'b'
tRp651
(I1
(I3
tg631
I00
S'\xca\xfe\xe1\xcb\xe5\x03\x18\xc0\xc8b\xd5Y\x0e\x89\x10@M\xe6\x9a/\xcf(\x06@'
tbsg48
(dp652
sg50
I01
sbag2
(g9
g4
NtRp653
(dp654
g12
(lp655
F0.740061568
aF1.2026175969999999
aF1.2292688970000001
asg14
g2
(g15
g4
NtRp656
(dp657
g18
I1
sg19
I00
sg20
(dp658
g24
I1
ssbsg25
g628
sg46
g32
(g33
(I0
tS'b'
tRp659
(I1
(I3
tg631
I00
S'\xf5\xc4\xf4\xc5\xc9\xa0\x16@l\xe2\x82\xce\xb9\xf0\x03@\xd8s\xfc\xd6\x19\xe8\x02@'
tbsg48
(dp660
sg50
I01
sbag2
(g9
g4
NtRp661
(dp662
g12
(lp663
F1.469769168
aF0.50396463499999999
aF0.76721215200000004
asg14
g2
(g15
g4
NtRp664
(dp665
g18
I1
sg19
I00
sg20
(dp666
g24
I1
ssbsg25
g628
sg46
g32
(g33
(I0
tS'b'
tRp667
(I1
(I3
tg631
I00
S"\xe7\xff\xa1\x06\xe7\xbc\xe4\xbf`\x1b\x1f'j\x97\x16@Q\xa2\xf3\xbfo%\x10@"
tbsg48
(dp668
sg50
I01
sbag2
(g9
g4
NtRp669
(dp670
g12
(lp671
F-0.225901355
aF0.81175171599999996
aF-0.72943740300000004
asg14
g2
(g15
g4
NtRp672
(dp673
g18
I1
sg19
I00
sg20
(dp674
g24
I1
ssbsg25
g628
sg46
g32
(g33
(I0
tS'b'
tRp675
(I1
(I3
tg631
I00
S'\xe9v\xd2\xba\xa1\xb3\xf0?\x11\x9e\xb3(l\x12\x17\xc0\xff\xb8\xa4\xbf\t\x87\x11@'
tbsg48
(dp676
sg50
I01
sbag2
(g9
g4
NtRp677
(dp678
g12
(lp679
F1.2771237010000001
aF0.010019828999999999
aF-0.53403900699999995
asg14
g2
(g15
g4
NtRp680
(dp681
g18
I1
sg19
I00
sg20
(dp682
g24
I1
ssbsg25
g628
sg46
g32
(g33
(I0
tS'b'
tRp683
(I1
(I3
tg631
I00
S'\x1f\x0cJ\xba5\xf7\x17\xc0&V\x84\x0e|\x1e\x03@\x96\xf9\xda?\x18l\x18@'
tbsg48
(dp684
sg50
I01
sbag2
(g9
g4
NtRp685
(dp686
g12
(lp687
F1.4731794869999999
aF1.703067221
aF1.4632707469999999
asg14
g2
(g15
g4
NtRp688
(dp689
g18
I1
sg19
I00
sg20
(dp690
g24
I1
ssbsg25
g628
sg46
g32
(g33
(I0
tS'b'
tRp691
(I1
(I3
tg631
I00
S'\x87ldB\xa4\xb1\x16@?\xab\xf9\xc3.\x0b\x10@\xe5\xe7\xe6\xf6\x16\xcf\x16@'
tbsg48
(dp692
sg50
I01
sbasg25
g628
sbag2
(g3
g4
NtRp693
(dp694
g7
(lp695
g2
(g9
g4
NtRp696
(dp697
g12
(lp698
F1.249781491
aF2.000409345
aF1.6252281390000001
asg14
g2
(g15
g4
NtRp699
(dp700
g18
I1
sg19
I00
sg20
(dp701
g24
I1
ssbsg25
g2
(g26
g4
NtRp702
(dp703
g29
Nsg30
Nsg31
g32
(g33
(I0
tS'b'
tRp704
(I1
(I3
tg631
I00
S'[\x1d\xc6\xce\'{\x16@\xa9\xfc\xaa\xafe0\x15@|#\xb5\xcfAK"@'
tbsg37
Nsg38
g32
(g33
(I0
tS'b'
tRp705
(I1
(I3
I3
tg631
I00
S'\x10\x8b\xfa\x1f\xbe^\x04@\xad\xae6\x0b#\x07\x14\xc0e8x\x08\xde\xae\xc7?\xf0cl\xeb\x1eR\t\xc0\xf3\xb9\xce\x17_\xda\x96\xbfW\xde\xc0\xaa\x9b\xfd\x10@\xab/C\xca\xec/\xf0?\x15\x82\xc9K\x06\x19\xc7?\xab4H\x12\x9b-"\xc0'
tbsg40
g32
(g33
(I0
tS'b'
tRp706
(I1
(I3
tg631
I00
S'\xed+\xa7z\xca\xb4b@\x98\xea\xa96\xa7\x80V@c\xe0C\xb8\xcb\xfaY@'
tbsg42
Nsg43
I00
sg44
(dp707
sbsg46
g32
(g33
(I0
tS'b'
tRp708
(I1
(I3
tg631
I00
S'\x03\\\xdd\x85c\x14\xf8\xbf\xf1\xca\t\x074\t\x18\xc0\x8d\xa4\x9cW\x8e,\x18\xc0'
tbsg48
(dp709
sg50
I01
sbag2
(g9
g4
NtRp710
(dp711
g12
(lp712
F-1.250084865
aF-0.99853821200000004
aF-1.1235299000000001
asg14
g2
(g15
g4
NtRp713
(dp714
g18
I1
sg19
I00
sg20
(dp715
g24
I1
ssbsg25
g702
sg46
g32
(g33
(I0
tS'b'
tRp716
(I1
(I3
tg631
I00
S'YM YF\x8c\xf2\xbf\xbfp\x85U\x91P\x18@\xa9\xdb9m\xd5\xf4\x16@'
tbsg48
(dp717
sg50
I01
sbag2
(g9
g4
NtRp718
(dp719
g12
(lp720
F1.2501358760000001
aF0.50034833700000003
aF0.12544364999999999
asg14
g2
(g15
g4
NtRp721
(dp722
g18
I1
sg19
I00
sg20
(dp723
g24
I1
ssbsg25
g702
sg46
g32
(g33
(I0
tS'b'
tRp724
(I1
(I3
tg631
I00
S'\x98T\x1eWw\x9f\xfb?\xcc\x8de\\\xdf\xfd\x18\xc0lZ\xc4\x90\x94v\xf3?'
tbsg48
(dp725
sg50
I01
sbag2
(g9
g4
NtRp726
(dp727
g12
(lp728
F-1.24993797
aF-1.498645746
aF0.37665325599999999
asg14
g2
(g15
g4
NtRp729
(dp730
g18
I1
sg19
I00
sg20
(dp731
g24
I1
ssbsg25
g702
sg46
g32
(g33
(I0
tS'b'
tRp732
(I1
(I3
tg631
I00
S'\xe37\xc3%k\x11\xff?\xdf3.Msp\x19@\r\xe1\xccPw\n$\xc0'
tbsg48
(dp733
sg50
I01
sbag2
(g9
g4
NtRp734
(dp735
g12
(lp736
F-1.249781491
aF-2.000409345
aF-1.6252281390000001
asg14
g2
(g15
g4
NtRp737
(dp738
g18
I1
sg19
I00
sg20
(dp739
g24
I1
ssbsg25
g702
sg46
g32
(g33
(I0
tS'b'
tRp740
(I1
(I3
tg631
I00
S'\x03\\\xdd\x85c\x14\xf8?\xf1\xca\t\x074\t\x18@\x8d\xa4\x9cW\x8e,\x18@'
tbsg48
(dp741
sg50
I01
sbag2
(g9
g4
NtRp742
(dp743
g12
(lp744
F1.250084865
aF0.99853821300000001
aF1.1235299000000001
asg14
g2
(g15
g4
NtRp745
(dp746
g18
I1
sg19
I00
sg20
(dp747
g24
I1
ssbsg25
g702
sg46
g32
(g33
(I0
tS'b'
tRp748
(I1
(I3
tg631
I00
S'[\xccFXF\x8c\xf2?\xe7\xd2\x85U\x91P\x18\xc0=\xe2\xf0l\xd5\xf4\x16\xc0'
tbsg48
(dp749
sg50
I01
sbag2
(g9
g4
NtRp750
(dp751
g12
(lp752
F-1.2501358760000001
aF-0.50034833700000003
aF0.87455634999999998
asg14
g2
(g15
g4
NtRp753
(dp754
g18
I1
sg19
I00
sg20
(dp755
g24
I1
ssbsg25
g702
sg46
g32
(g33
(I0
tS'b'
tRp756
(I1
(I3
tg631
I00
S'\xdbI\xb6\x19\x15\xdf\xe6\xbf\xdd\xd9\xc3\x8e\xa7\xb6\x19@\xf8\xbf`\xa4m\x9c$\xc0'
tbsg48
(dp757
sg50
I01
sbag2
(g9
g4
NtRp758
(dp759
g12
(lp760
F1.24993797
aF1.498645746
aF0.62334674400000001
asg14
g2
(g15
g4
NtRp761
(dp762
g18
I1
sg19
I00
sg20
(dp763
g24
I1
ssbsg25
g702
sg46
g32
(g33
(I0
tS'b'
tRp764
(I1
(I3
tg631
I00
S'q\x10\x00\xb7\xfc\xc2\xed\xbf\xcf\xe7\xcf\x1a\xab\xb7\x18\xc0#\xc6J\xe8\xc3\xcd\xed?'
tbsg48
(dp765
sg50
I01
sbasg25
g702
sbag2
(g3
g4
NtRp766
(dp767
g7
(lp768
g2
(g9
g4
NtRp769
(dp770
g12
(lp771
F0.28681687300000003
aF0.65849318400000001
aF0.21870888499999999
asg14
g2
(g15
g4
NtRp772
(dp773
g18
I1
sg19
I00
sg20
(dp774
g24
I1
ssbsg25
g2
(g26
g4
NtRp775
(dp776
g29
Nsg30
Nsg31
g32
(g33
(I0
tS'b'
tRp777
(I1
(I3
tg631
I00
S'I\xe4M4\xd8\xa8\x0b@\x1fQ\xb5\x9e\xa0Y"@|\x898\xc1\xb2\xa5\x19@'
tbsg37
Nsg38
g32
(g33
(I0
tS'b'
tRp778
(I1
(I3
I3
tg631
I00
S';\x07\xa1L;2\n@\x00\x00\x00\x00\x00\x00\x00\x00-\xe7"#?\xc1\xf1?\x00\x00\x00\x00\x00\x00\x00\x00\x1fQ\xb5\x9e\xa0Y"@\x00\x00\x00\x00\x00\x00\x00\x00\xb4.3A\x14y\xef?\x00\x00\x00\x00\x00\x00\x00\x00Zk<\x99\xfeW\x19@'
tbsg40
g32
(g33
(I0
tS'b'
tRp779
(I1
(I3
tg631
I00
S'\x00\x00\x00\x00\x00\x80V@I\x05\x1eCV:O@\x00\x00\x00\x00\x00\x80V@'
tbsg42
Nsg43
I00
sg44
(dp780
sbsg46
g32
(g33
(I0
tS'b'
tRp781
(I1
(I3
tg631
I00
S'i\x07)\x88\xffw\xf2?Mf4\x16\xb6*\x18@\xbd\x0e\t\xe5\x94C\xfb?'
tbsg48
(dp782
sg50
I01
sbag2
(g9
g4
NtRp783
(dp784
g12
(lp785
F-0.28681687300000003
aF0.65849318400000001
aF-0.21870888499999999
asg14
g2
(g15
g4
NtRp786
(dp787
g18
I1
sg19
I00
sg20
(dp788
g24
I1
ssbsg25
g775
sg46
g32
(g33
(I0
tS'b'
tRp789
(I1
(I3
tg631
I00
S'i\x07)\x88\xffw\xf2\xbfMf4\x16\xb6*\x18@\xbd\x0e\t\xe5\x94C\xfb\xbf'
tbsg48
(dp790
sg50
I01
sbag2
(g9
g4
NtRp791
(dp792
g12
(lp793
F0
aF0.26034903300000001
aF0
asg14
g2
(g15
g4
NtRp794
(dp795
g18
I1
sg19
I00
sg20
(dp796
g24
I1
ssbsg25
g775
sg46
g32
(g33
(I0
tS'b'
tRp797
(I1
(I3
tg631
I00
S'\x00\x00\x00\x00\x00\x00\x00\x005\xc7\x83M\x17\x1c\x03@\x00\x00\x00\x00\x00\x00\x00\x00'
tbsg48
(dp798
sg50
I01
sbag2
(g9
g4
NtRp799
(dp800
g12
(lp801
F0
aF1.015883256
aF0
asg14
g2
(g15
g4
NtRp802
(dp803
g18
I1
sg19
I00
sg20
(dp804
g24
I1
ssbsg25
g775
sg46
g32
(g33
(I0
tS'b'
tRp805
(I1
(I3
tg631
I00
S'\x00\x00\x00\x00\x00\x00\x00\x00\xc4\xab\xd6\xb4=\xa4"@\x00\x00\x00\x00\x00\x00\x00\x00'
tbsg48
(dp806
sg50
I01
sbag2
(g9
g4
NtRp807
(dp808
g12
(lp809
F0.5
aF0.426197043
aF0
asg14
g2
(g15
g4
NtRp810
(dp811
g18
I1
sg19
I00
sg20
(dp812
g24
I1
ssbsg25
g775
sg46
g32
(g33
(I0
tS'b'
tRp813
(I1
(I3
tg631
I00
S';\x07\xa1L;2\xfa?\x1d~\x9a\xacuH\x0f@-\xe7"#?\xc1\xe1?'
tbsg48
(dp814
sg50
I01
sbag2
(g9
g4
NtRp815
(dp816
g12
(lp817
F-0
aF0.37261020299999997
aF0.5
asg14
g2
(g15
g4
NtRp818
(dp819
g18
I1
sg19
I00
sg20
(dp820
g24
I1
ssbsg25
g775
sg46
g32
(g33
(I0
tS'b'
tRp821
(I1
(I3
tg631
I00
S'\xb4.3A\x14y\xdf?}.\xf9\x1e\x89Y\x0b@Zk<\x99\xfeW\t@'
tbsg48
(dp822
sg50
I01
sbag2
(g9
g4
NtRp823
(dp824
g12
(lp825
F0
aF0.77711312899999996
aF0
asg14
g2
(g15
g4
NtRp826
(dp827
g18
I1
sg19
I00
sg20
(dp828
g24
I1
ssbsg25
g775
sg46
g32
(g33
(I0
tS'b'
tRp829
(I1
(I3
tg631
I00
S'\x00\x00\x00\x00\x00\x00\x00\x00\x7fo\x11\x07-\x85\x1c@\x00\x00\x00\x00\x00\x00\x00\x00'
tbsg48
(dp830
sg50
I01
sbag2
(g9
g4
NtRp831
(dp832
g12
(lp833
F0.5
aF0.56844396900000005
aF0.5
asg14
g2
(g15
g4
NtRp834
(dp835
g18
I1
sg19
I00
sg20
(dp836
g24
I1
ssbsg25
g775
sg46
g32
(g33
(I0
tS'b'
tRp837
(I1
(I3
tg631
I00
S't\xe9v.@\x08\x01@\x12\x8d@\x0b\xad\xdc\x14@%%\x05bN\xc8\r@'
tbsg48
(dp838
sg50
I01
sbasg25
g775
sbag2
(g3
g4
NtRp839
(dp840
g7
(lp841
g2
(g9
g4
NtRp842
(dp843
g12
(lp844
F0.68010742899999999
aF0.68010742899999999
aF0.68010742899999999
asg14
g2
(g15
g4
NtRp845
(dp846
g18
I1
sg19
I00
sg20
(dp847
g24
I1
ssbsg25
g2
(g26
g4
NtRp848
(dp849
g29
Nsg30
Nsg31
g32
(g33
(I0
tS'b'
tRp850
(I1
(I3
tg35
(S'f8'
I0
I1
tRp851
(I3
S'<'
NNNI-1
I-1
I0
tbI00
S'\x98\xb6\x15z\xe6\xf5\x19@\x98\xb6\x15z\xe6\xf5\x19@\x98\xb6\x15z\xe6\xf5\x19@'
tbsg37
Nsg38
g32
(g33
(I0
tS'b'
tRp852
(I1
(I3
I3
tg851
I00
S'\xd9\xb5\xc7O\x06\xfa\r\xc0\xd9\xb5\xc7O\x06\xfa\r@\xd9\xb5\xc7O\x06\xfa\r@\xd9\xb5\xc7O\x06\xfa\r@\xd9\xb5\xc7O\x06\xfa\r\xc0\xd9\xb5\xc7O\x06\xfa\r@\xd9\xb5\xc7O\x06\xfa\r@\xd9\xb5\xc7O\x06\xfa\r@\xd9\xb5\xc7O\x06\xfa\r\xc0'
tbsg40
g32
(g33
(I0
tS'b'
tRp853
(I1
(I3
tg851
I00
S'\xa0\x95\x97z(^[@\xa0\x95\x97z(^[@\xa0\x95\x97z(^[@'
tbsg42
Nsg43
I00
sg44
(dp854
sbsg46
g32
(g33
(I0
tS'b'
tRp855
(I1
(I3
tg851
I00
S'\xe7\xa6\xf7B)c\x04@\xe7\xa6\xf7B)c\x04@\xe7\xa6\xf7B)c\x04@'
tbsg48
(dp856
sg50
I01
sbag2
(g9
g4
NtRp857
(dp858
g12
(lp859
F-0.68010742899999999
aF-0
aF-0
asg14
g2
(g15
g4
NtRp860
(dp861
g18
I1
sg19
I00
sg20
(dp862
g24
I1
ssbsg25
g848
sg46
g32
(g33
(I0
tS'b'
tRp863
(I1
(I3
tg851
I00
S'\xe7\xa6\xf7B)c\x04@\xe7\xa6\xf7B)c\x04\xc0\xe7\xa6\xf7B)c\x04\xc0'
tbsg48
(dp864
sg50
I01
sbag2
(g9
g4
NtRp865
(dp866
g12
(lp867
F0
aF-0.68010742899999999
aF0
asg14
g2
(g15
g4
NtRp868
(dp869
g18
I1
sg19
I00
sg20
(dp870
g24
I1
ssbsg25
g848
sg46
g32
(g33
(I0
tS'b'
tRp871
(I1
(I3
tg851
I00
S'\xe7\xa6\xf7B)c\x04\xc0\xe7\xa6\xf7B)c\x04@\xe7\xa6\xf7B)c\x04\xc0'
tbsg48
(dp872
sg50
I01
sbag2
(g9
g4
NtRp873
(dp874
g12
(lp875
F-0
aF0
aF-0.68010742899999999
asg14
g2
(g15
g4
NtRp876
(dp877
g18
I1
sg19
I00
sg20
(dp878
g24
I1
ssbsg25
g848
sg46
g32
(g33
(I0
tS'b'
tRp879
(I1
(I3
tg851
I00
S'\xe7\xa6\xf7B)c\x04\xc0\xe7\xa6\xf7B)c\x04\xc0\xe7\xa6\xf7B)c\x04@'
tbsg48
(dp880
sg50
I01
sbag2
(g9
g4
NtRp881
(dp882
g12
(lp883
F1.319950851
aF1.319950851
aF1.319950851
asg14
g2
(g15
g4
NtRp884
(dp885
g18
I1
sg19
I00
sg20
(dp886
g24
I1
ssbsg25
g848
sg46
g32
(g33
(I0
tS'b'
tRp887
(I1
(I3
tg851
I00
S'\x01\x05\x87\xed\xaa\xc8\x13@\x00\x05\x87\xed\xaa\xc8\x13@\x00\x05\x87\xed\xaa\xc8\x13@'
tbsg48
(dp888
sg50
I01
sbag2
(g9
g4
NtRp889
(dp890
g12
(lp891
F-1.319950851
aF-0
aF-0
asg14
g2
(g15
g4
NtRp892
(dp893
g18
I1
sg19
I00
sg20
(dp894
g24
I1
ssbsg25
g848
sg46
g32
(g33
(I0
tS'b'
tRp895
(I1
(I3
tg851
I00
S'\x00\x05\x87\xed\xaa\xc8\x13@\x00\x05\x87\xed\xaa\xc8\x13\xc0\x00\x05\x87\xed\xaa\xc8\x13\xc0'
tbsg48
(dp896
sg50
I01
sbag2
(g9
g4
NtRp897
(dp898
g12
(lp899
F-0
aF-1.319950851
aF0
asg14
g2
(g15
g4
NtRp900
(dp901
g18
I1
sg19
I00
sg20
(dp902
g24
I1
ssbsg25
g848
sg46
g32
(g33
(I0
tS'b'
tRp903
(I1
(I3
tg851
I00
S'\x00\x05\x87\xed\xaa\xc8\x13\xc0\x00\x05\x87\xed\xaa\xc8\x13@\x00\x05\x87\xed\xaa\xc8\x13\xc0'
tbsg48
(dp904
sg50
I01
sbag2
(g9
g4
NtRp905
(dp906
g12
(lp907
F-0
aF-0
aF-1.319950851
asg14
g2
(g15
g4
NtRp908
(dp909
g18
I1
sg19
I00
sg20
(dp910
g24
I1
ssbsg25
g848
sg46
g32
(g33
(I0
tS'b'
tRp911
(I1
(I3
tg851
I00
S'\x00\x05\x87\xed\xaa\xc8\x13\xc0\x00\x05\x87\xed\xaa\xc8\x13\xc0\x00\x05\x87\xed\xaa\xc8\x13@'
tbsg48
(dp912
sg50
I01
sbasg25
g848
sbag2
(g3
g4
NtRp913
(dp914
g7
(lp915
g2
(g9
g4
NtRp916
(dp917
g12
(lp918
F0.30164292799999998
aF0.22151531599999999
aF0.12696886800000001
asg14
g2
(g15
g4
NtRp919
(dp920
g18
I1
sg19
I00
sg20
(dp921
g24
I1
ssbsg25
g2
(g26
g4
NtRp922
(dp923
g29
Nsg30
Nsg31
g32
(g33
(I0
tS'b'
tRp924
(I1
(I3
tg851
I00
S'\xde\x8a2\xe4jo\x15@\xce\xa1\x81b\xa8\\\x14@\xabk\xe1\x8a\xa9\x0f\x1d@'
tbsg37
Nsg38
g32
(g33
(I0
tS'b'
tRp925
(I1
(I3
I3
tg851
I00
S'\x8e\n\x8a\x89Gf\x15@\x00\x00\x00\x00\x00\x00\x00\x00\x80\xf8))\xd8\xc8\xd3\xbf\x00\x00\x00\x00\x00\x00\x00\x00\xce\xa1\x81b\xa8\\\x14@\x00\x00\x00\x00\x00\x00\x00\x00\xa8,Y\x01\xfd\xdb\x04\xc0\x00\x00\x00\x00\x00\x00\x00\x006V\xca\x81\n \x1b@'
tbsg40
g32
(g33
(I0
tS'b'
tRp926
(I1
(I3
tg851
I00
S'\x00\x00\x00\x00\x00\x80V@\xca\xdc\xd4J\xb0\x95\\@\x00\x00\x00\x00\x00\x80V@'
tbsg42
Nsg43
I00
sg44
(dp927
sbsg46
g32
(g33
(I0
tS'b'
tRp928
(I1
(I3
tg851
I00
S'\x8b\xcf_\x97\xe9\x85\xf4?L\xe0\x1f\xef\xbb\n\xf2?;\xc1\x93l\x87\x91\xe8?'
tbsg48
(dp929
sg50
I01
sbag2
(g9
g4
NtRp930
(dp931
g12
(lp932
F0.30164292799999998
aF-0.22151531599999999
aF0.62696886799999996
asg14
g2
(g15
g4
NtRp933
(dp934
g18
I1
sg19
I00
sg20
(dp935
g24
I1
ssbsg25
g922
sg46
g32
(g33
(I0
tS'b'
tRp936
(I1
(I3
tg851
I00
S'\x13GW~\xda\x84\x95\xbfL\xe0\x1f\xef\xbb\n\xf2\xbfB\xa3w.6\xa2\x10@'
tbsg48
(dp937
sg50
I01
sbag2
(g9
g4
NtRp938
(dp939
g12
(lp940
F0.49760416800000001
aF0.93740545900000005
aF0.96381150900000001
asg14
g2
(g15
g4
NtRp941
(dp942
g18
I1
sg19
I00
sg20
(dp943
g24
I1
ssbsg25
g922
sg46
g32
(g33
(I0
tS'b'
tRp944
(I1
(I3
tg851
I00
S'`\xc3\x1cO\x98\x14\xc3?g\xc8\x8f\xb3_\x16\x13@\xd3]\xdc\x8b:\x87\x19@'
tbsg48
(dp945
sg50
I01
sbag2
(g9
g4
NtRp946
(dp947
g12
(lp948
F0.49760416800000001
aF-0.93740545900000005
aF1.4638115089999999
asg14
g2
(g15
g4
NtRp949
(dp950
g18
I1
sg19
I00
sg20
(dp951
g24
I1
ssbsg25
g922
sg46
g32
(g33
(I0
tS'b'
tRp952
(I1
(I3
tg851
I00
S';\x94u\xf7iy\xf2\xbfg\xc8\x8f\xb3_\x16\x13\xc0w\xc4`\xe6\x9f\x8b#@'
tbsg48
(dp953
sg50
I01
sbag2
(g9
g4
NtRp954
(dp955
g12
(lp956
F0.82628986000000004
aF0.72167656300000005
aF0.50660934000000002
asg14
g2
(g15
g4
NtRp957
(dp958
g18
I1
sg19
I00
sg20
(dp959
g24
I1
ssbsg25
g922
sg46
g32
(g33
(I0
tS'b'
tRp960
(I1
(I3
tg851
I00
S'Qp=l\x01\xcc\x08@&\xc7j\xb3\xb4c\r@,\x0e`\x12\xb4p\t@'
tbsg48
(dp961
sg50
I01
sbag2
(g9
g4
NtRp962
(dp963
g12
(lp964
F0.82628986000000004
aF-0.72167656300000005
aF1.00660934
asg14
g2
(g15
g4
NtRp965
(dp966
g18
I1
sg19
I00
sg20
(dp967
g24
I1
ssbsg25
g922
sg46
g32
(g33
(I0
tS'b'
tRp968
(I1
(I3
tg851
I00
S'\xfb\xb3!\xd7\x05\xbc\xfc?&\xc7j\xb3\xb4c\r\xc012\x15J_H\x1a@'
tbsg48
(dp969
sg50
I01
sbag2
(g9
g4
NtRp970
(dp971
g12
(lp972
F0.630406044
aF0.562319244
aF0.16982328299999999
asg14
g2
(g15
g4
NtRp973
(dp974
g18
I1
sg19
I00
sg20
(dp975
g24
I1
ssbsg25
g922
sg46
g32
(g33
(I0
tS'b'
tRp976
(I1
(I3
tg851
I00
S"'JQ\x02:p\x07@\xec\xf0D\x04[\xe6\x06@BC\xc8\xe0\x9f\x9d\xee?"
tbsg48
(dp977
sg50
I01
sbag2
(g9
g4
NtRp978
(dp979
g12
(lp980
F0.630406044
aF-0.562319244
aF0.66982328300000005
asg14
g2
(g15
g4
NtRp981
(dp982
g18
I1
sg19
I00
sg20
(dp983
g24
I1
ssbsg25
g922
sg46
g32
(g33
(I0
tS'b'
tRp984
(I1
(I3
tg851
I00
S'\xa5gI\x03w\x04\xfa?\xec\xf0D\x04[\xe6\x06\xc0\x843\xfe<\xb9c\x11@'
tbsg48
(dp985
sg50
I01
sbasg25
g922
sbag2
(g3
g4
NtRp986
(dp987
g7
(lp988
g2
(g9
g4
NtRp989
(dp990
g12
(lp991
F0.49993719800000003
aF0.499924231
aF0.37487309200000002
asg14
g2
(g15
g4
NtRp992
(dp993
g18
I1
sg19
I00
sg20
(dp994
g24
I1
ssbsg25
g2
(g26
g4
NtRp995
(dp996
g29
Nsg30
Nsg31
g32
(g33
(I0
tS'b'
tRp997
(I1
(I3
tg851
I00
S'\xa8\x18;\xa6\x9f,\x14@\x10\xd0v\xdb^\xe8\x18@\xd5\xeawA\xbdg$@'
tbsg37
Nsg38
g32
(g33
(I0
tS'b'
tRp998
(I1
(I3
I3
tg851
I00
S"7\xe2}\xe0 \x91\x0c@O\xcb\x14\x15\x9f~\x0c\xc0\xa7FC!]\xc7\x03\xbf\x98\x9f\x83}'\x91\x0c\xc0v\xc2 \xf0\x8d\x0f\r?z\x97\xd9\x87\xbfg\x14@\r\xe6mt\xe7\xec\xf1>c\x89\xde\x14\x1c\x7f\x1e\xbf\xd5\x18rA\xbdg$\xc0"
tbsg40
g32
(g33
(I0
tS'b'
tRp999
(I1
(I3
tg851
I00
S'\x15!e\xf7D b@\xddi>N\xf0\x7fV@\x1cO\xf0;!}\\@'
tbsg42
Nsg43
I00
sg44
(dp1000
sbsg46
g32
(g33
(I0
tS'b'
tRp1001
(I1
(I3
tg851
I00
S'\xd0\xcc\x08\x15{T\x08?\x02\x89\x113\xc5}\xfc\xbf}%\xfb\x16\x14d\xf4\xbf'
tbsg48
(dp1002
sg50
I01
sbag2
(g9
g4
NtRp1003
(dp1004
g12
(lp1005
F-0.49993719800000003
aF-0.499924231
aF-0.37487309200000002
asg14
g2
(g15
g4
NtRp1006
(dp1007
g18
I1
sg19
I00
sg20
(dp1008
g24
I1
ssbsg25
g995
sg46
g32
(g33
(I0
tS'b'
tRp1009
(I1
(I3
tg851
I00
S'\xd0\xcc\x08\x15{T\x08\xbf\x02\x89\x113\xc5}\xfc?}%\xfb\x16\x14d\xf4?'
tbsg48
(dp1010
sg50
I01
sbag2
(g9
g4
NtRp1011
(dp1012
g12
(lp1013
F0.50006722800000003
aF0.50017318799999999
aF0.12496568800000001
asg14
g2
(g15
g4
NtRp1014
(dp1015
g18
I1
sg19
I00
sg20
(dp1016
g24
I1
ssbsg25
g995
sg46
g32
(g33
(I0
tS'b'
tRp1017
(I1
(I3
tg851
I00
S'\x8c\x91\xe8\x9f\xfb\x119\xbff\x99\x82W\x8c\x7f\xfc\xbf\xada,\x81\xbbl\xf4?'
tbsg48
(dp1018
sg50
I01
sbag2
(g9
g4
NtRp1019
(dp1020
g12
(lp1021
F-0.50006722800000003
aF-0.50017318799999999
aF-0.12496568800000001
asg14
g2
(g15
g4
NtRp1022
(dp1023
g18
I1
sg19
I00
sg20
(dp1024
g24
I1
ssbsg25
g995
sg46
g32
(g33
(I0
tS'b'
tRp1025
(I1
(I3
tg851
I00
S'\x8c\x91\xe8\x9f\xfb\x119?f\x99\x82W\x8c\x7f\xfc?\xada,\x81\xbbl\xf4\xbf'
tbsg48
(dp1026
sg50
I01
sbag2
(g9
g4
NtRp1027
(dp1028
g12
(lp1029
F0.000104962
aF0.500246792
aF1.125020661
asg14
g2
(g15
g4
NtRp1030
(dp1031
g18
I1
sg19
I00
sg20
(dp1032
g24
I1
ssbsg25
g995
sg46
g32
(g33
(I0
tS'b'
tRp1033
(I1
(I3
tg851
I00
S'\xf7\x8e^b&\x93\xfc\xbf\xf5I%\xea\xdbB?\xbf\xc6~\x1e\xa5;\xda!\xc0'
tbsg48
(dp1034
sg50
I01
sbag2
(g9
g4
NtRp1035
(dp1036
g12
(lp1037
F-2.9521000000000001e-05
aF0.49998695399999998
aF-0.62511531300000001
asg14
g2
(g15
g4
NtRp1038
(dp1039
g18
I1
sg19
I00
sg20
(dp1040
g24
I1
ssbsg25
g995
sg46
g32
(g33
(I0
tS'b'
tRp1041
(I1
(I3
tg851
I00
S'\xda\x9a\x1dbp\x91\xfc\xbfM\x06\x89\xeaK\xf2*?\xf9bd\xa6W\xdb!@'
tbsg48
(dp1042
sg50
I01
sbag2
(g9
g4
NtRp1043
(dp1044
g12
(lp1045
F-0.000104962
aF-0.500246792
aF-1.125020661
asg14
g2
(g15
g4
NtRp1046
(dp1047
g18
I1
sg19
I00
sg20
(dp1048
g24
I1
ssbsg25
g995
sg46
g32
(g33
(I0
tS'b'
tRp1049
(I1
(I3
tg851
I00
S'\xf7\x8e^b&\x93\xfc?\xf5I%\xea\xdbB??\xc6~\x1e\xa5;\xda!@'
tbsg48
(dp1050
sg50
I01
sbag2
(g9
g4
NtRp1051
(dp1052
g12
(lp1053
F2.9521000000000001e-05
aF-0.49998695399999998
aF0.62511531300000001
asg14
g2
(g15
g4
NtRp1054
(dp1055
g18
I1
sg19
I00
sg20
(dp1056
g24
I1
ssbsg25
g995
sg46
g32
(g33
(I0
tS'b'
tRp1057
(I1
(I3
tg851
I00
S'\xda\x9a\x1dbp\x91\xfc?M\x06\x89\xeaK\xf2*\xbf\xf9bd\xa6W\xdb!\xc0'
tbsg48
(dp1058
sg50
I01
sbasg25
g995
sbag2
(g3
g4
NtRp1059
(dp1060
g7
(lp1061
g2
(g9
g4
NtRp1062
(dp1063
g12
(lp1064
F0.25
aF0.25
aF0.25
asg14
g2
(g15
g4
NtRp1065
(dp1066
g18
I1
sg19
I00
sg20
(dp1067
g24
I1
ssbsg25
g2
(g26
g4
NtRp1068
(dp1069
g29
Nsg30
Nsg31
g32
(g33
(I0
tS'b'
tRp1070
(I1
(I3
tg35
(S'f8'
I0
I1
tRp1071
(I3
S'<'
NNNI-1
I-1
I0
tbI00
S'f\xaf\xe6\x1c\x16*\x1a@U\x92\x00+Ci\x1b@\x9dZ*-+\x0e\x13@'
tbsg37
Nsg38
g32
(g33
(I0
tS'b'
tRp1072
(I1
(I3
I3
tg1071
I00
S'f\xaf\xe6\x1c\x16*\x1a@\x00\x00\x00\x00\x00\x00\x00\x00\x00\x00\x00\x00\x00\x00\x00\x00\x00\x00\x00\x00\x00\x00\x00\x00U\x92\x00+Ci\x1b@\x00\x00\x00\x00\x00\x00\x00\x00\x00\x00\x00\x00\x00\x00\x00\x00\x00\x00\x00\x00\x00\x00\x00\x00\x9dZ*-+\x0e\x13@'
tbsg40
g32
(g33
(I0
tS'b'
tRp1073
(I1
(I3
tg1071
I00
S'\x00\x00\x00\x00\x00\x80V@\x00\x00\x00\x00\x00\x80V@\x00\x00\x00\x00\x00\x80V@'
tbsg42
Nsg43
I01
sg44
(dp1074
sbsg46
g32
(g33
(I0
tS'b'
tRp1075
(I1
(I3
tg1071
I00
S'f\xaf\xe6\x1c\x16*\xfa?U\x92\x00+Ci\xfb?\x9dZ*-+\x0e\xf3?'
tbsg48
(dp1076
sg50
I01
sbag2
(g9
g4
NtRp1077
(dp1078
g12
(lp1079
F0.25
aF0.75
aF0.75
asg14
g2
(g15
g4
NtRp1080
(dp1081
g18
I1
sg19
I00
sg20
(dp1082
g24
I1
ssbsg25
g1068
sg46
g32
(g33
(I0
tS'b'
tRp1083
(I1
(I3
tg1071
I00
S'f\xaf\xe6\x1c\x16*\xfa?\xc0m@`\xf2\x8e\x14@\xec\x87\xbf\xc3@\x95\x0c@'
tbsg48
(dp1084
sg50
I01
sbag2
(g9
g4
NtRp1085
(dp1086
g12
(lp1087
F0.75
aF0.25
aF0.75
asg14
g2
(g15
g4
NtRp1088
(dp1089
g18
I1
sg19
I00
sg20
(dp1090
g24
I1
ssbsg25
g1068
sg46
g32
(g33
(I0
tS'b'
tRp1091
(I1
(I3
tg1071
I00
S'\x8c\x03\xad\x95\x90\x9f\x13@U\x92\x00+Ci\xfb?\xec\x87\xbf\xc3@\x95\x0c@'
tbsg48
(dp1092
sg50
I01
sbag2
(g9
g4
NtRp1093
(dp1094
g12
(lp1095
F0.75
aF0.75
aF0.25
asg14
g2
(g15
g4
NtRp1096
(dp1097
g18
I1
sg19
I00
sg20
(dp1098
g24
I1
ssbsg25
g1068
sg46
g32
(g33
(I0
tS'b'
tRp1099
(I1
(I3
tg1071
I00
S'\x8c\x03\xad\x95\x90\x9f\x13@\xc0m@`\xf2\x8e\x14@\x9dZ*-+\x0e\xf3?'
tbsg48
(dp1100
sg50
I01
sbag2
(g9
g4
NtRp1101
(dp1102
g12
(lp1103
F0
aF0.5
aF0.71451510500000004
asg14
g2
(g15
g4
NtRp1104
(dp1105
g18
I1
sg19
I00
sg20
(dp1106
g24
I1
ssbsg25
g1068
sg46
g32
(g33
(I0
tS'b'
tRp1107
(I1
(I3
tg1071
I00
S'\x00\x00\x00\x00\x00\x00\x00\x00U\x92\x00+Ci\x0b@M\xb4\xcf\xe5\x0c;\x0b@'
tbsg48
(dp1108
sg50
I01
sbag2
(g9
g4
NtRp1109
(dp1110
g12
(lp1111
F0
aF0.5
aF-0.71451510500000004
asg14
g2
(g15
g4
NtRp1112
(dp1113
g18
I1
sg19
I00
sg20
(dp1114
g24
I1
ssbsg25
g1068
sg46
g32
(g33
(I0
tS'b'
tRp1115
(I1
(I3
tg1071
I00
S'\x00\x00\x00\x00\x00\x00\x00\x00U\x92\x00+Ci\x0b@M\xb4\xcf\xe5\x0c;\x0b\xc0'
tbsg48
(dp1116
sg50
I01
sbag2
(g9
g4
NtRp1117
(dp1118
g12
(lp1119
F0.5
aF0
aF-0.21451510500000001
asg14
g2
(g15
g4
NtRp1120
(dp1121
g18
I1
sg19
I00
sg20
(dp1122
g24
I1
ssbsg25
g1068
sg46
g32
(g33
(I0
tS'b'
tRp1123
(I1
(I3
tg1071
I00
S'f\xaf\xe6\x1c\x16*\n@\x00\x00\x00\x00\x00\x00\x00\x00`\xb3Jq\xc3Y\xf0\xbf'
tbsg48
(dp1124
sg50
I01
sbag2
(g9
g4
NtRp1125
(dp1126
g12
(lp1127
F0.5
aF0
aF1.214515105
asg14
g2
(g15
g4
NtRp1128
(dp1129
g18
I1
sg19
I00
sg20
(dp1130
g24
I1
ssbsg25
g1068
sg46
g32
(g33
(I0
tS'b'
tRp1131
(I1
(I3
tg1071
I00
S'f\xaf\xe6\x1c\x16*\n@\x00\x00\x00\x00\x00\x00\x00\x00u\x07}\t\x9c$\x17@'
tbsg48
(dp1132
sg50
I01
sbasg25
g1068
sbag2
(g3
g4
NtRp1133
(dp1134
g7
(lp1135
g2
(g9
g4
NtRp1136
(dp1137
g12
(lp1138
F0
aF0
aF0.83334096199999996
asg14
g2
(g15
g4
NtRp1139
(dp1140
g18
I1
sg19
I00
sg20
(dp1141
g24
I1
ssbsg25
g2
(g26
g4
NtRp1142
(dp1143
g29
Nsg30
Nsg31
g32
(g33
(I0
tS'b'
tRp1144
(I1
(I3
tg1071
I00
S'F=\xe40\x0f^\x10@N\x8e\x98_!\xcb\x11@\xd4\x81\xd2n\xf9R\x1e@'
tbsg37
Nsg38
g32
(g33
(I0
tS'b'
tRp1145
(I1
(I3
I3
tg1071
I00
S'F=\xe40\x0f^\x10@\x00\x00\x00\x00\x00\x00\x00\x00\x00\x00\x00\x00\x00\x00\x00\x00\x00\x00\x00\x00\x00\x00\x00\x00N\x8e\x98_!\xcb\x11@\x00\x00\x00\x00\x00\x00\x00\x00\x00\x00\x00\x00\x00\x00\x00\x00\x00\x00\x00\x00\x00\x00\x00\x00\xd4\x81\xd2n\xf9R\x1e@'
tbsg40
g32
(g33
(I0
tS'b'
tRp1146
(I1
(I3
tg1071
I00
S'\x00\x00\x00\x00\x00\x80V@\x00\x00\x00\x00\x00\x80V@\x00\x00\x00\x00\x00\x80V@'
tbsg42
Nsg43
I01
sg44
(dp1147
sbsg46
g32
(g33
(I0
tS'b'
tRp1148
(I1
(I3
tg1071
I00
S'\x00\x00\x00\x00\x00\x00\x00\x00\x00\x00\x00\x00\x00\x00\x00\x00XW\xcdZ4E\x19@'
tbsg48
(dp1149
sg50
I01
sbag2
(g9
g4
NtRp1150
(dp1151
g12
(lp1152
F0.5
aF0.5
aF-0.83334096199999996
asg14
g2
(g15
g4
NtRp1153
(dp1154
g18
I1
sg19
I00
sg20
(dp1155
g24
I1
ssbsg25
g1142
sg46
g32
(g33
(I0
tS'b'
tRp1156
(I1
(I3
tg1071
I00
S'F=\xe40\x0f^\x00@N\x8e\x98_!\xcb\x01@XW\xcdZ4E\x19\xc0'
tbsg48
(dp1157
sg50
I01
sbag2
(g9
g4
NtRp1158
(dp1159
g12
(lp1160
F0
aF0
aF0.50988612300000002
asg14
g2
(g15
g4
NtRp1161
(dp1162
g18
I1
sg19
I00
sg20
(dp1163
g24
I1
ssbsg25
g1142
sg46
g32
(g33
(I0
tS'b'
tRp1164
(I1
(I3
tg1071
I00
S'\x00\x00\x00\x00\x00\x00\x00\x00\x00\x00\x00\x00\x00\x00\x00\x00O"\xbc=w\xec\x0e@'
tbsg48
(dp1165
sg50
I01
sbag2
(g9
g4
NtRp1166
(dp1167
g12
(lp1168
F0.5
aF0.5
aF-0.50988612300000002
asg14
g2
(g15
g4
NtRp1169
(dp1170
g18
I1
sg19
I00
sg20
(dp1171
g24
I1
ssbsg25
g1142
sg46
g32
(g33
(I0
tS'b'
tRp1172
(I1
(I3
tg1071
I00
S'F=\xe40\x0f^\x00@N\x8e\x98_!\xcb\x01@O"\xbc=w\xec\x0e\xc0'
tbsg48
(dp1173
sg50
I01
sbag2
(g9
g4
NtRp1174
(dp1175
g12
(lp1176
F0
aF0
aF0.15239086299999999
asg14
g2
(g15
g4
NtRp1177
(dp1178
g18
I1
sg19
I00
sg20
(dp1179
g24
I1
ssbsg25
g1142
sg46
g32
(g33
(I0
tS'b'
tRp1180
(I1
(I3
tg1071
I00
S'\x00\x00\x00\x00\x00\x00\x00\x00\x00\x00\x00\x00\x00\x00\x00\x00\xec\x91K\x83\x06|\xf2?'
tbsg48
(dp1181
sg50
I01
sbag2
(g9
g4
NtRp1182
(dp1183
g12
(lp1184
F0.5
aF0.5
aF-0.15239086299999999
asg14
g2
(g15
g4
NtRp1185
(dp1186
g18
I1
sg19
I00
sg20
(dp1187
g24
I1
ssbsg25
g1142
sg46
g32
(g33
(I0
tS'b'
tRp1188
(I1
(I3
tg1071
I00
S'F=\xe40\x0f^\x00@N\x8e\x98_!\xcb\x01@\xec\x91K\x83\x06|\xf2\xbf'
tbsg48
(dp1189
sg50
I01
sbag2
(g9
g4
NtRp1190
(dp1191
g12
(lp1192
F0
aF0.5
aF0.67198864700000005
asg14
g2
(g15
g4
NtRp1193
(dp1194
g18
I1
sg19
I00
sg20
(dp1195
g24
I1
ssbsg25
g1142
sg46
g32
(g33
(I0
tS'b'
tRp1196
(I1
(I3
tg1071
I00
S'\x00\x00\x00\x00\x00\x00\x00\x00N\x8e\x98_!\xcb\x01@\x08o\xdbp\xa1`\x14@'
tbsg48
(dp1197
sg50
I01
sbag2
(g9
g4
NtRp1198
(dp1199
g12
(lp1200
F0.5
aF0
aF-0.67198864700000005
asg14
g2
(g15
g4
NtRp1201
(dp1202
g18
I1
sg19
I00
sg20
(dp1203
g24
I1
ssbsg25
g1142
sg46
g32
(g33
(I0
tS'b'
tRp1204
(I1
(I3
tg1071
I00
S'F=\xe40\x0f^\x00@\x00\x00\x00\x00\x00\x00\x00\x00\x08o\xdbp\xa1`\x14\xc0'
tbsg48
(dp1205
sg50
I01
sbasg25
g1142
sbag2
(g3
g4
NtRp1206
(dp1207
g7
(lp1208
g2
(g9
g4
NtRp1209
(dp1210
g12
(lp1211
F0.87437233800000003
aF1.0000442780000001
aF0.083649436999999993
asg14
g2
(g15
g4
NtRp1212
(dp1213
g18
I1
sg19
I00
sg20
(dp1214
g24
I1
ssbsg25
g2
(g26
g4
NtRp1215
(dp1216
g29
Nsg30
Nsg31
g32
(g33
(I0
tS'b'
tRp1217
(I1
(I3
tg1071
I00
S'\x0c\'}\xe2\x7f=\x1f@_\xc5\xa7\xd5\x97\r"@\x14\r$\xb8)\x05\x1b@'
tbsg37
Nsg38
g32
(g33
(I0
tS'b'
tRp1218
(I1
(I3
I3
tg1071
I00
S'\x0c\'}\xe2\x7f=\x1f@\x00\x00\x00\x00\x00\x00\x00\x00\x00\x00\x00\x00\x00\x00\x00\x00\x00\x00\x00\x00\x00\x00\x00\x00_\xc5\xa7\xd5\x97\r"@\x00\x00\x00\x00\x00\x00\x00\x00\x00\x00\x00\x00\x00\x00\x00\x00\x00\x00\x00\x00\x00\x00\x00\x00\x14\r$\xb8)\x05\x1b@'
tbsg40
g32
(g33
(I0
tS'b'
tRp1219
(I1
(I3
tg1071
I00
S'\x00\x00\x00\x00\x00\x80V@\x00\x00\x00\x00\x00\x80V@\x00\x00\x00\x00\x00\x80V@'
tbsg42
Nsg43
I01
sg44
(dp1220
sbsg46
g32
(g33
(I0
tS'b'
tRp1221
(I1
(I3
tg1071
I00
S'\xf6\xb5`\xd9\xcaP\x1b@%\xae\x9b8\xcc\r"@6\xb9i.\xef\x14\xe2?'
tbsg48
(dp1222
sg50
I01
sbag2
(g9
g4
NtRp1223
(dp1224
g12
(lp1225
F-0.87437233800000003
aF-1.0000442780000001
aF0.58364943700000005
asg14
g2
(g15
g4
NtRp1226
(dp1227
g18
I1
sg19
I00
sg20
(dp1228
g24
I1
ssbsg25
g1215
sg46
g32
(g33
(I0
tS'b'
tRp1229
(I1
(I3
tg1071
I00
S'\xf6\xb5`\xd9\xcaP\x1b\xc0%\xae\x9b8\xcc\r"\xc0b{\xbe\x83e\x8a\x0f@'
tbsg48
(dp1230
sg50
I01
sbag2
(g9
g4
NtRp1231
(dp1232
g12
(lp1233
F-0.37437233800000003
aF1.0000442780000001
aF0.58364943700000005
asg14
g2
(g15
g4
NtRp1234
(dp1235
g18
I1
sg19
I00
sg20
(dp1236
g24
I1
ssbsg25
g1215
sg46
g32
(g33
(I0
tS'b'
tRp1237
(I1
(I3
tg1071
I00
S'\xe1DD\xd0\x15d\x07\xc0%\xae\x9b8\xcc\r"@b{\xbe\x83e\x8a\x0f@'
tbsg48
(dp1238
sg50
I01
sbag2
(g9
g4
NtRp1239
(dp1240
g12
(lp1241
F1.3743723379999999
aF-1.0000442780000001
aF0.083649436999999993
asg14
g2
(g15
g4
NtRp1242
(dp1243
g18
I1
sg19
I00
sg20
(dp1244
g24
I1
ssbsg25
g1215
sg46
g32
(g33
(I0
tS'b'
tRp1245
(I1
(I3
tg1071
I00
S'\xbe\xa4Oe\xc5w%@%\xae\x9b8\xcc\r"\xc06\xb9i.\xef\x14\xe2?'
tbsg48
(dp1246
sg50
I01
sbag2
(g9
g4
NtRp1247
(dp1248
g12
(lp1249
F0.87562855900000003
aF-4.0779999999999997e-06
aF0.75022756300000004
asg14
g2
(g15
g4
NtRp1250
(dp1251
g18
I1
sg19
I00
sg20
(dp1252
g24
I1
ssbsg25
g1215
sg46
g32
(g33
(I0
tS'b'
tRp1253
(I1
(I3
tg1071
I00
S'}\xfa\x1d\xc9\xd6Z\x1b@\xe2&@$\x97L\x03\xbf\xee\xf1\xb0ArE\x14@'
tbsg48
(dp1254
sg50
I01
sbag2
(g9
g4
NtRp1255
(dp1256
g12
(lp1257
F-0.87562855900000003
aF4.0779999999999997e-06
aF1.2502275629999999
asg14
g2
(g15
g4
NtRp1258
(dp1259
g18
I1
sg19
I00
sg20
(dp1260
g24
I1
ssbsg25
g1215
sg46
g32
(g33
(I0
tS'b'
tRp1261
(I1
(I3
tg1071
I00
S'}\xfa\x1d\xc9\xd6Z\x1b\xc0\xe2&@$\x97L\x03?<|\xe1\x8e\x03\xe4 @'
tbsg48
(dp1262
sg50
I01
sbag2
(g9
g4
NtRp1263
(dp1264
g12
(lp1265
F-0.37562855899999997
aF-4.0779999999999997e-06
aF1.2502275629999999
asg14
g2
(g15
g4
NtRp1266
(dp1267
g18
I1
sg19
I00
sg20
(dp1268
g24
I1
ssbsg25
g1215
sg46
g32
(g33
(I0
tS'b'
tRp1269
(I1
(I3
tg1071
I00
S'\xed\xcd\xbe\xaf-x\x07\xc0\xe2&@$\x97L\x03\xbf<|\xe1\x8e\x03\xe4 @'
tbsg48
(dp1270
sg50
I01
sbag2
(g9
g4
NtRp1271
(dp1272
g12
(lp1273
F1.3756285589999999
aF4.0779999999999997e-06
aF0.75022756300000004
asg14
g2
(g15
g4
NtRp1274
(dp1275
g18
I1
sg19
I00
sg20
(dp1276
g24
I1
ssbsg25
g1215
sg46
g32
(g33
(I0
tS'b'
tRp1277
(I1
(I3
tg1071
I00
S'\x01G.]\xcb|%@\xe2&@$\x97L\x03?\xee\xf1\xb0ArE\x14@'
tbsg48
(dp1278
sg50
I01
sbasg25
g1215
sbag2
(g3
g4
NtRp1279
(dp1280
g7
(lp1281
g2
(g9
g4
NtRp1282
(dp1283
g12
(lp1284
F0.76393853599999995
aF0.75706948500000004
aF0.49997356599999998
asg14
g2
(g15
g4
NtRp1285
(dp1286
g18
I1
sg19
I00
sg20
(dp1287
g24
I1
ssbsg25
g2
(g26
g4
NtRp1288
(dp1289
g29
Nsg30
Nsg31
g32
(g33
(I0
tS'b'
tRp1290
(I1
(I3
tg1071
I00
S'\xf1\\\xf1j?W\x13@\xe6.\xe0j?W\x13@\xf9\xa3J\xc2\xf5D @'
tbsg37
Nsg38
g32
(g33
(I0
tS'b'
tRp1291
(I1
(I3
I3
tg1071
I00
S'\xf1\\\xf1j?W\x13@\x00\x00\x00\x00\x00\x00\x00\x80\x00\x00\x00\x00\x00\x00\x00\x00\x00\x00\x00\x00\x00\x00\x00\x00\xe6.\xe0j?W\x13@\x00\x00\x00\x00\x00\x00\x00\x00\x00\x00\x00\x00\x00\x00\x00\x00\x00\x00\x00\x00\x00\x00\x00\x00\xf9\xa3J\xc2\xf5D @'
tbsg40
g32
(g33
(I0
tS'b'
tRp1292
(I1
(I3
tg1071
I00
S'\x00\x00\x00\x00\x00\x80V@\x00\x00\x00\x00\x00\x80V@\x00\x00\x00\x00\x00\x80V@'
tbsg42
Nsg43
I01
sg44
(dp1293
sbsg46
g32
(g33
(I0
tS'b'
tRp1294
(I1
(I3
tg1071
I00
S'\x99\xe7O\xdb\xe5\x8c\r@l\r\x95\x8b\xe0H\r@\xebZ\xb7c\xbdD\x10@'
tbsg48
(dp1295
sg50
I01
sbag2
(g9
g4
NtRp1296
(dp1297
g12
(lp1298
F-0.76393853599999995
aF-0.75706948500000004
aF0.49997356599999998
asg14
g2
(g15
g4
NtRp1299
(dp1300
g18
I1
sg19
I00
sg20
(dp1301
g24
I1
ssbsg25
g1288
sg46
g32
(g33
(I0
tS'b'
tRp1302
(I1
(I3
tg1071
I00
S'\x99\xe7O\xdb\xe5\x8c\r\xc0l\r\x95\x8b\xe0H\r\xc0\xebZ\xb7c\xbdD\x10@'
tbsg48
(dp1303
sg50
I01
sbag2
(g9
g4
NtRp1304
(dp1305
g12
(lp1306
F0.75706948500000004
aF-0.76393853599999995
aF-0.49997356599999998
asg14
g2
(g15
g4
NtRp1307
(dp1308
g18
I1
sg19
I00
sg20
(dp1309
g24
I1
ssbsg25
g1288
sg46
g32
(g33
(I0
tS'b'
tRp1310
(I1
(I3
tg1071
I00
S'\xac\x10\xaf\x8b\xe0H\r@\xed\xa75\xdb\xe5\x8c\r\xc0\xebZ\xb7c\xbdD\x10\xc0'
tbsg48
(dp1311
sg50
I01
sbag2
(g9
g4
NtRp1312
(dp1313
g12
(lp1314
F-0.75706948500000004
aF0.76393853599999995
aF-0.49997356599999998
asg14
g2
(g15
g4
NtRp1315
(dp1316
g18
I1
sg19
I00
sg20
(dp1317
g24
I1
ssbsg25
g1288
sg46
g32
(g33
(I0
tS'b'
tRp1318
(I1
(I3
tg1071
I00
S'\xac\x10\xaf\x8b\xe0H\r\xc0\xed\xa75\xdb\xe5\x8c\r@\xebZ\xb7c\xbdD\x10\xc0'
tbsg48
(dp1319
sg50
I01
sbag2
(g9
g4
NtRp1320
(dp1321
g12
(lp1322
F0.5
aF0.5
aF0
asg14
g2
(g15
g4
NtRp1323
(dp1324
g18
I1
sg19
I00
sg20
(dp1325
g24
I1
ssbsg25
g1288
sg46
g32
(g33
(I0
tS'b'
tRp1326
(I1
(I3
tg1071
I00
S'\xf1\\\xf1j?W\x03@\xe6.\xe0j?W\x03@\x00\x00\x00\x00\x00\x00\x00\x00'
tbsg48
(dp1327
sg50
I01
sbag2
(g9
g4
NtRp1328
(dp1329
g12
(lp1330
F0
aF0
aF0
asg14
g2
(g15
g4
NtRp1331
(dp1332
g18
I1
sg19
I00
sg20
(dp1333
g24
I1
ssbsg25
g1288
sg46
g32
(g33
(I0
tS'b'
tRp1334
(I1
(I3
tg1071
I00
S'\x00\x00\x00\x00\x00\x00\x00\x00\x00\x00\x00\x00\x00\x00\x00\x00\x00\x00\x00\x00\x00\x00\x00\x00'
tbsg48
(dp1335
sg50
I01
sbag2
(g9
g4
NtRp1336
(dp1337
g12
(lp1338
F0.5
aF0.5
aF0.70967197800000004
asg14
g2
(g15
g4
NtRp1339
(dp1340
g18
I1
sg19
I00
sg20
(dp1341
g24
I1
ssbsg25
g1288
sg46
g32
(g33
(I0
tS'b'
tRp1342
(I1
(I3
tg1071
I00
S'\xf1\\\xf1j?W\x03@\xe6.\xe0j?W\x03@\xffk\x9a\xc3\x82\x17\x17@'
tbsg48
(dp1343
sg50
I01
sbag2
(g9
g4
NtRp1344
(dp1345
g12
(lp1346
F0.5
aF0.5
aF-0.70967197800000004
asg14
g2
(g15
g4
NtRp1347
(dp1348
g18
I1
sg19
I00
sg20
(dp1349
g24
I1
ssbsg25
g1288
sg46
g32
(g33
(I0
tS'b'
tRp1350
(I1
(I3
tg1071
I00
S'\xf1\\\xf1j?W\x03@\xe6.\xe0j?W\x03@\xffk\x9a\xc3\x82\x17\x17\xc0'
tbsg48
(dp1351
sg50
I01
sbasg25
g1288
sbag2
(g3
g4
NtRp1352
(dp1353
g7
(lp1354
g2
(g9
g4
NtRp1355
(dp1356
g12
(lp1357
F0.50012758800000001
aF0.50036292699999996
aF0.75015149699999994
asg14
g2
(g15
g4
NtRp1358
(dp1359
g18
I1
sg19
I00
sg20
(dp1360
g24
I1
ssbsg25
g2
(g26
g4
NtRp1361
(dp1362
g29
Nsg30
Nsg31
g32
(g33
(I0
tS'b'
tRp1363
(I1
(I3
tg1071
I00
S"d\xba\xc1\xd6\r\x84\x16@,\x19\x1e+'\x8a\x1a@\n\x80v\xe1H(%@"
tbsg37
Nsg38
g32
(g33
(I0
tS'b'
tRp1364
(I1
(I3
I3
tg1071
I00
S'8*\xdc\x97\xd8\t\x10@t#H\x7f\x11\x9b\x0f\xc0V\xe5\xb29\x1d\xb4F?`\xc5\xd7\x0e\xae\x07\x10\xc0\xd1\xca\x88\xce\xdc\x8aG?\xed\xda\x18\x1a\xd3&\x15@\x96,\xd3\xa1fWp\xbf\xc23\xc7\x10\x05\xd5T\xbf\xa5\xd0\xa7\xc5H(%\xc0'
tbsg40
g32
(g33
(I0
tS'b'
tRp1365
(I1
(I3
tg1071
I00
S'T\xf6<\x86H\xdaa@\xae\x89\x12\x8a \x81V@\xf1gO"\xd1\xde\\@'
tbsg42
Nsg43
I00
sg44
(dp1366
sbsg46
g32
(g33
(I0
tS'b'
tRp1367
(I1
(I3
tg1071
I00
S'\x04m\xee\xb6\x87\x93g\xbf\xb4\xb9\xd0<\x91\x9f\xff\xbf\x96c\xd9\xcdU(\x15\xc0'
tbsg48
(dp1368
sg50
I01
sbag2
(g9
g4
NtRp1369
(dp1370
g12
(lp1371
F-0.50012758800000001
aF-0.50036292699999996
aF0.249848503
asg14
g2
(g15
g4
NtRp1372
(dp1373
g18
I1
sg19
I00
sg20
(dp1374
g24
I1
ssbsg25
g1361
sg46
g32
(g33
(I0
tS'b'
tRp1375
(I1
(I3
tg1071
I00
S'O\xd8o\x19\x8b6R\xbf\xe7\x87\x8c\xfb[\x9a\xff?\xb3=v\xbd;(\x15\xc0'
tbsg48
(dp1376
sg50
I01
sbag2
(g9
g4
NtRp1377
(dp1378
g12
(lp1379
F-9.7825000000000006e-05
aF3.8590000000000002e-05
aF0.14034453799999999
asg14
g2
(g15
g4
NtRp1380
(dp1381
g18
I1
sg19
I00
sg20
(dp1382
g24
I1
ssbsg25
g1361
sg46
g32
(g33
(I0
tS'b'
tRp1383
(I1
(I3
tg1071
I00
S'\xf0v\x83\xfeJ"R\xbf\x86\xd9\x1f\tTE+?\xcd\xb6\x83\xedT\xc0\xf7\xbf'
tbsg48
(dp1384
sg50
I01
sbag2
(g9
g4
NtRp1385
(dp1386
g12
(lp1387
F9.7825000000000006e-05
aF-3.8590000000000002e-05
aF-0.14034453799999999
asg14
g2
(g15
g4
NtRp1388
(dp1389
g18
I1
sg19
I00
sg20
(dp1390
g24
I1
ssbsg25
g1361
sg46
g32
(g33
(I0
tS'b'
tRp1391
(I1
(I3
tg1071
I00
S'\xf0v\x83\xfeJ"R?\x86\xd9\x1f\tTE+\xbf\xcd\xb6\x83\xedT\xc0\xf7?'
tbsg48
(dp1392
sg50
I01
sbag2
(g9
g4
NtRp1393
(dp1394
g12
(lp1395
F8.7282999999999998e-05
aF0.00067031899999999995
aF0.35997288500000002
asg14
g2
(g15
g4
NtRp1396
(dp1397
g18
I1
sg19
I00
sg20
(dp1398
g24
I1
ssbsg25
g1361
sg46
g32
(g33
(I0
tS'b'
tRp1399
(I1
(I3
tg1071
I00
S'\x04\xc17\x1dw\xe7n\xbfm_U\xa8\x17HJ\xbf\xfd\x82\x1e:\x9ao\x0e\xc0'
tbsg48
(dp1400
sg50
I01
sbag2
(g9
g4
NtRp1401
(dp1402
g12
(lp1403
F-8.7282999999999998e-05
aF-0.00067031899999999995
aF-0.35997288500000002
asg14
g2
(g15
g4
NtRp1404
(dp1405
g18
I1
sg19
I00
sg20
(dp1406
g24
I1
ssbsg25
g1361
sg46
g32
(g33
(I0
tS'b'
tRp1407
(I1
(I3
tg1071
I00
S'\x04\xc17\x1dw\xe7n?m_U\xa8\x17HJ?\xfd\x82\x1e:\x9ao\x0e@'
tbsg48
(dp1408
sg50
I01
sbag2
(g9
g4
NtRp1409
(dp1410
g12
(lp1411
F-3.7285e-05
aF0.49977168799999999
aF0.75008016300000002
asg14
g2
(g15
g4
NtRp1412
(dp1413
g18
I1
sg19
I00
sg20
(dp1414
g24
I1
ssbsg25
g1361
sg46
g32
(g33
(I0
tS'b'
tRp1415
(I1
(I3
tg1071
I00
S'w\xa9\xb5\xad=\x0c\x00\xc0!&\x0eUUQ=\xbfO\x8b\xe5f\x1e+\x15\xc0'
tbsg48
(dp1416
sg50
I01
sbag2
(g9
g4
NtRp1417
(dp1418
g12
(lp1419
F3.7285e-05
aF-0.49977168799999999
aF0.24991983700000001
asg14
g2
(g15
g4
NtRp1420
(dp1421
g18
I1
sg19
I00
sg20
(dp1422
g24
I1
ssbsg25
g1361
sg46
g32
(g33
(I0
tS'b'
tRp1423
(I1
(I3
tg1071
I00
S'\xe1\xbfd\xfa\x11\x04\x00@tT\x07w_\x01K\xbf\xfc\x15j$s%\x15\xc0'
tbsg48
(dp1424
sg50
I01
sbasg25
g1361
sbag2
(g3
g4
NtRp1425
(dp1426
g7
(lp1427
g2
(g9
g4
NtRp1428
(dp1429
g12
(lp1430
F0
aF0
aF0.5
asg14
g2
(g15
g4
NtRp1431
(dp1432
g18
I1
sg19
I00
sg20
(dp1433
g24
I1
ssbsg25
g2
(g26
g4
NtRp1434
(dp1435
g29
Nsg30
Nsg31
g32
(g33
(I0
tS'b'
tRp1436
(I1
(I3
tg1071
I00
S'F\xcev\x101u\x14@F\xcev\x101u\x14@j\x15\x9aw\xde\x10\x12@'
tbsg37
Nsg38
g32
(g33
(I0
tS'b'
tRp1437
(I1
(I3
I3
tg1071
I00
S'F\xcev\x101u\x14@\x00\x00\x00\x00\x00\x00\x00\x80\x00\x00\x00\x00\x00\x00\x00\x00\x00\x00\x00\x00\x00\x00\x00\x00F\xcev\x101u\x14@\x00\x00\x00\x00\x00\x00\x00\x00\x00\x00\x00\x00\x00\x00\x00\x00\x00\x00\x00\x00\x00\x00\x00\x00j\x15\x9aw\xde\x10\x12@'
tbsg40
g32
(g33
(I0
tS'b'
tRp1438
(I1
(I3
tg1071
I00
S'\x00\x00\x00\x00\x00\x80V@\x00\x00\x00\x00\x00\x80V@\x00\x00\x00\x00\x00\x80V@'
tbsg42
Nsg43
I01
sg44
(dp1439
sbsg46
g32
(g33
(I0
tS'b'
tRp1440
(I1
(I3
tg1071
I00
S'\x00\x00\x00\x00\x00\x00\x00\x00\x00\x00\x00\x00\x00\x00\x00\x00j\x15\x9aw\xde\x10\x02@'
tbsg48
(dp1441
sg50
I01
sbag2
(g9
g4
NtRp1442
(dp1443
g12
(lp1444
F0.5
aF0.5
aF0.5
asg14
g2
(g15
g4
NtRp1445
(dp1446
g18
I1
sg19
I00
sg20
(dp1447
g24
I1
ssbsg25
g1434
sg46
g32
(g33
(I0
tS'b'
tRp1448
(I1
(I3
tg1071
I00
S'F\xcev\x101u\x04@F\xcev\x101u\x04@j\x15\x9aw\xde\x10\x02@'
tbsg48
(dp1449
sg50
I01
sbag2
(g9
g4
NtRp1450
(dp1451
g12
(lp1452
F0
aF0.5
aF0.5
asg14
g2
(g15
g4
NtRp1453
(dp1454
g18
I1
sg19
I00
sg20
(dp1455
g24
I1
ssbsg25
g1434
sg46
g32
(g33
(I0
tS'b'
tRp1456
(I1
(I3
tg1071
I00
S'\x00\x00\x00\x00\x00\x00\x00\x00F\xcev\x101u\x04@j\x15\x9aw\xde\x10\x02@'
tbsg48
(dp1457
sg50
I01
sbag2
(g9
g4
NtRp1458
(dp1459
g12
(lp1460
F0.5
aF-0
aF0.5
asg14
g2
(g15
g4
NtRp1461
(dp1462
g18
I1
sg19
I00
sg20
(dp1463
g24
I1
ssbsg25
g1434
sg46
g32
(g33
(I0
tS'b'
tRp1464
(I1
(I3
tg1071
I00
S'F\xcev\x101u\x04@\x00\x00\x00\x00\x00\x00\x00\x00j\x15\x9aw\xde\x10\x02@'
tbsg48
(dp1465
sg50
I01
sbag2
(g9
g4
NtRp1466
(dp1467
g12
(lp1468
F0.249711983
aF0.74988244699999995
aF-0
asg14
g2
(g15
g4
NtRp1469
(dp1470
g18
I1
sg19
I00
sg20
(dp1471
g24
I1
ssbsg25
g1434
sg46
g32
(g33
(I0
tS'b'
tRp1472
(I1
(I3
tg1071
I00
S'u\xf0dv(o\xf4?\xc3\xfb\x88b\x8e\xae\x0e@\x00\x00\x00\x00\x00\x00\x00\x00'
tbsg48
(dp1473
sg50
I01
sbag2
(g9
g4
NtRp1474
(dp1475
g12
(lp1476
F-0.249711983
aF0.25011755299999999
aF-0
asg14
g2
(g15
g4
NtRp1477
(dp1478
g18
I1
sg19
I00
sg20
(dp1479
g24
I1
ssbsg25
g1434
sg46
g32
(g33
(I0
tS'b'
tRp1480
(I1
(I3
tg1071
I00
S'u\xf0dv(o\xf4\xbf\x91A\xc9|\xa7w\xf4?\x00\x00\x00\x00\x00\x00\x00\x00'
tbsg48
(dp1481
sg50
I01
sbag2
(g9
g4
NtRp1482
(dp1483
g12
(lp1484
F0.25011755299999999
aF0.249711983
aF0
asg14
g2
(g15
g4
NtRp1485
(dp1486
g18
I1
sg19
I00
sg20
(dp1487
g24
I1
ssbsg25
g1434
sg46
g32
(g33
(I0
tS'b'
tRp1488
(I1
(I3
tg1071
I00
S'\x91A\xc9|\xa7w\xf4?u\xf0dv(o\xf4?\x00\x00\x00\x00\x00\x00\x00\x00'
tbsg48
(dp1489
sg50
I01
sbag2
(g9
g4
NtRp1490
(dp1491
g12
(lp1492
F0.74988244699999995
aF-0.249711983
aF0
asg14
g2
(g15
g4
NtRp1493
(dp1494
g18
I1
sg19
I00
sg20
(dp1495
g24
I1
ssbsg25
g1434
sg46
g32
(g33
(I0
tS'b'
tRp1496
(I1
(I3
tg1071
I00
S'\xc3\xfb\x88b\x8e\xae\x0e@u\xf0dv(o\xf4\xbf\x00\x00\x00\x00\x00\x00\x00\x00'
tbsg48
(dp1497
sg50
I01
sbasg25
g1434
sba.