(dp1
I0
(lp2
(lp3
I4
aI4
aI4
aa(lp4
I6
aI6
aI6
aa(lp5
I6
aI6
aI6
aa(lp6
I6
aI6
aI6
aasI1
(lp7
(lp8
I2
aI2
aI4
aa(lp9
I4
aI4
aI4
aa(lp10
I6
aI6
aI4
aa(lp11
I6
aI6
aI4
aasI2
(lp12
(lp13
I4
aI4
aI4
aa(lp14
I6
aI6
aI6
aa(lp15
I6
aI6
aI6
aa(lp16
I6
aI6
aI6
aasI3
(lp17
(lp18
I4
aI4
aI4
aa(lp19
I6
aI6
aI4
aa(lp20
I8
aI8
aI2
aa(lp21
I8
aI8
aI2
aasI4
(lp22
(lp23
I2
aI2
aI4
aa(lp24
I4
aI4
aI4
aa(lp25
I6
aI6
aI6
aa(lp26
I6
aI6
aI6
aasI5
(lp27
(lp28
I4
aI4
aI4
aa(lp29
I6
aI6
aI6
aa(lp30
I6
aI6
aI6
aa(lp31
I6
aI6
aI6
aasI6
(lp32
(lp33
I4
aI4
aI4
aa(lp34
I6
aI6
aI6
aa(lp35
I4
aI4
aI8
aa(lp36
I4
aI4
aI8
aasI7
(lp37
(lp38
I6
aI6
aI4
aa(lp39
S'skip'
p40
aasI8
(lp41
(lp42
I4
aI4
aI4
aa(lp43
I6
aI4
aI4
aa(lp44
I6
aI6
aI6
aa(lp45
I6
aI6
aI6
aasI9
(lp46
(lp47
I6
aI6
aI4
aa(lp48
g40
aasI10
(lp49
(lp50
I4
aI4
aI4
aa(lp51
I6
aI6
aI6
aa(lp52
I6
aI6
aI6
aa(lp53
I6
aI6
aI6
aasI11
(lp54
(lp55
I6
aI6
aI4
aa(lp56
g40
aasI12
(lp57
(lp58
I6
aI6
aI6
aa(lp59
I8
aI8
aI8
aa(lp60
I6
aI6
aI6
aa(lp61
I6
aI6
aI6
aasI13
(lp62
(lp63
I4
aI4
aI4
aa(lp64
I6
aI6
aI6
aa(lp65
I6
aI6
aI6
aa(lp66
I6
aI6
aI6
aasI14
(lp67
(lp68
I4
aI4
aI4
aa(lp69
I6
aI6
aI6
aa(lp70
I6
aI6
aI6
aa(lp71
I6
aI6
aI6
aasI15
(lp72
(lp73
I6
aI4
aI4
aa(lp74
I6
aI6
aI6
aa(lp75
I6
aI6
aI6
aa(lp76
I6
aI6
aI6
aasI16
(lp77
(lp78
I6
aI4
aI4
aa(lp79
I6
aI6
aI6
aa(lp80
I6
aI6
aI6
aa(lp81
I6
aI6
aI6
aasI17
(lp82
(lp83
I4
aI4
aI4
aa(lp84
I6
aI6
aI6
aa(lp85
I6
aI6
aI6
aa(lp86
I6
aI6
aI6
aasI18
(lp87
(lp88
I4
aI4
aI2
aa(lp89
I6
aI4
aI4
aa(lp90
I6
aI4
aI4
aa(lp91
I6
aI4
aI4
aasI19
(lp92
(lp93
I4
aI4
aI4
aa(lp94
I4
aI4
aI4
aa(lp95
I4
aI4
aI6
aa(lp96
I4
aI4
aI6
aas.