(dp1
I0
ccopy_reg
_reconstructor
p2
(cpymatgen.core.structure
Structure
p3
c__builtin__
object
p4
NtRp5
(dp6
S'_sites'
p7
(lp8
g2
(cpymatgen.core.sites
PeriodicSite
p9
g4
NtRp10
(dp11
S'_fcoords'
p12
(lp13
F0.83332270819720666
aF0.16667727340673411
aF0.31357085835411419
asS'_species'
p14
g2
(cpymatgen.core.composition
Composition
p15
g4
NtRp16
(dp17
S'_natoms'
p18
I1
sS'allow_negative'
p19
I00
sS'_data'
p20
(dp21
cpymatgen.core.periodic_table
Element
p22
(VSi
p23
tRp24
I1
ssbsS'_lattice'
p25
g2
(cpymatgen.core.lattice
Lattice
p26
g4
NtRp27
(dp28
S'_diags'
p29
NsS'_lll_inverse'
p30
NsS'_lengths'
p31
cnumpy.core.multiarray
_reconstruct
p32
(cnumpy
ndarray
p33
(I0
tS'b'
tRp34
(I1
(I3
tcnumpy
dtype
p35
(S'f8'
I0
I1
tRp36
(I3
S'<'
NNNI-1
I-1
I0
tbI00
S'\x91u\x9fgr\xc1 @\x9cu\x9fgr\xc1 @J\xbd\xb7\xefP\xdd\x14@'
tbsS'_inv_matrix'
p37
NsS'_matrix'
p38
g32
(g33
(I0
tS'b'
tRp39
(I1
(I3
I3
tg36
I01
S'0u\x9fgr\xc1 @\x8fRf\xb4r\xc1\x10\xc0x\x07\xfcrA\xf7\x9e\xbe\x14\xcdT\x0b\xe7\xd3\xba\xbe\\\xd7=\x0e\x8a\x05\x1d@\xab\x0b\xcbY4\xd1\xaa\xbeaC:i\rF\xa3\xbe\x04\n\xd5l\rF\xa3\xbe\xee\xbc\xb7\xefP\xdd\x14@'
tbsS'_angles'
p40
g32
(g33
(I0
tS'b'
tRp41
(I1
(I3
tg36
I00
S'\x9e7\xbc%\x00\x80V@\x9c7\xbc%\x00\x80V@G;\xc3S\x00\x00^@'
tbsS'_metric_tensor'
p42
NsS'is_orthogonal'
p43
I00
sS'_lll_matrix_mappings'
p44
(dp45
sbsS'_coords'
p46
g32
(g33
(I0
tS'b'
tRp47
(I1
(I3
tg36
I00
S'\x14@\x80\x89\x08"\x19@\xa7:\xf9\xbcUY\xf3?9\xc8\xe1\xa2\x85+\xfa?'
tbsS'_properties'
p48
(dp49
sS'_is_ordered'
p50
I01
sbag2
(g9
g4
NtRp51
(dp52
g12
(lp53
F0.66664543479047256
aF0.83332270819720666
aF0.31357085835411419
asg14
g2
(g15
g4
NtRp54
(dp55
g18
I1
sg19
I00
sg20
(dp56
g24
I1
ssbsg25
g27
sg46
g32
(g33
(I0
tS'b'
tRp57
(I1
(I3
tg36
I00
S'f\xad\xbb\xe7+\xc1\x00@\x86\x11q\xd33/\x18@;\xd4\xcaU\x85+\xfa?'
tbsg48
(dp58
sg50
I01
sbag2
(g9
g4
NtRp59
(dp60
g12
(lp61
F0.83332272659326623
aF0.66664543479047256
aF0.31357085835411419
asg14
g2
(g15
g4
NtRp62
(dp63
g18
I1
sg19
I00
sg20
(dp64
g24
I1
ssbsg25
g27
sg46
g32
(g33
(I0
tS'b'
tRp65
(I1
(I3
tg36
I00
S'a\xbf\xe6/r\xc1\x10@\xe9\xb1\x11\xe8\xddX\x13@\x10\xd4\xcaU\x85+\xfa?'
tbsg48
(dp66
sg50
I01
sbag2
(g9
g4
NtRp67
(dp68
g12
(lp69
F0.1666772918027937
aF0.83332272659326623
aF0.31357085835411419
asg14
g2
(g15
g4
NtRp70
(dp71
g18
I1
sg19
I00
sg20
(dp72
g24
I1
ssbsg25
g27
sg46
g32
(g33
(I0
tS'b'
tRp73
(I1
(I3
tg36
I00
S'\x06W&\x04-\xc1\x00\xc0\xfe\x02\r\x124/\x18@\xc7\xc7\xe1\xa2\x85+\xfa?'
tbsg48
(dp74
sg50
I01
sbag2
(g9
g4
NtRp75
(dp76
g12
(lp77
F0.33335456520952689
aF0.1666772918027937
aF0.31357085835411419
asg14
g2
(g15
g4
NtRp78
(dp79
g18
I1
sg19
I00
sg20
(dp80
g24
I1
ssbsg25
g27
sg46
g32
(g33
(I0
tS'b'
tRp81
(I1
(I3
tg36
I00
S"\xa9{\x1e'\xb8\xc1\x00@\x87\x00i\xb7VY\xf3?\xc5\xbb\xf8\xef\x85+\xfa?"
tbsg48
(dp82
sg50
I01
sbag2
(g9
g4
NtRp83
(dp84
g12
(lp85
F0.16667727340673411
aF0.33335456520952689
aF0.31357085835411419
asg14
g2
(g15
g4
NtRp86
(dp87
g18
I1
sg19
I00
sg20
(dp88
g24
I1
ssbsg25
g27
sg46
g32
(g33
(I0
tS'b'
tRp89
(I1
(I3
tg36
I00
S'3\xd5wf\xd5<\xa4\xbem?s2WY\x03@\xef\xbb\xf8\xef\x85+\xfa?'
tbsg48
(dp90
sg50
I01
sbag2
(g9
g4
NtRp91
(dp92
g12
(lp93
F0.16667727340673411
aF0.83332270819720666
aF0.8135708583541158
asg14
g2
(g15
g4
NtRp94
(dp95
g18
I1
sg19
I00
sg20
(dp96
g24
I1
ssbsg25
g27
sg46
g32
(g33
(I0
tS'b'
tRp97
(I1
(I3
tg36
I00
S'\xc1Vu--\xc1\x00\xc0Y\xcbF\xee3/\x18@\x8aP\x94\xe0\x89\xf9\x10@'
tbsg48
(dp98
sg50
I01
sbag2
(g9
g4
NtRp99
(dp100
g12
(lp101
F0.83332270819720666
aF0.66664543479047256
aF0.8135708583541158
asg14
g2
(g15
g4
NtRp102
(dp103
g18
I1
sg19
I00
sg20
(dp104
g24
I1
ssbsg25
g27
sg46
g32
(g33
(I0
tS'b'
tRp105
(I1
(I3
tg36
I00
S'2`\x13\x16r\xc1\x10@\xb1}@\xcd\xddX\x13@\x91\x93N\xcd\x89\xf9\x10@'
tbsg48
(dp106
sg50
I01
sbag2
(g9
g4
NtRp107
(dp108
g12
(lp109
F0.66664543479047256
aF0.83332272659326623
aF0.8135708583541158
asg14
g2
(g15
g4
NtRp110
(dp111
g18
I1
sg19
I00
sg20
(dp112
g24
I1
ssbsg25
g27
sg46
g32
(g33
(I0
tS'b'
tRp113
(I1
(I3
tg36
I00
S'L\xadl\xbe+\xc1\x00@\x98\xe0\x94\xc13/\x18@\x84\x93N\xcd\x89\xf9\x10@'
tbsg48
(dp114
sg50
I01
sbag2
(g9
g4
NtRp115
(dp116
g12
(lp117
F0.83332272659326623
aF0.1666772918027937
aF0.8135708583541158
asg14
g2
(g15
g4
NtRp118
(dp119
g18
I1
sg19
I00
sg20
(dp120
g24
I1
ssbsg25
g27
sg46
g32
(g33
(I0
tS'b'
tRp121
(I1
(I3
tg36
I00
S'~~0\x7f\x08"\x19@kv\x88uUY\xf3?wP\x94\xe0\x89\xf9\x10@'
tbsg48
(dp122
sg50
I01
sbag2
(g9
g4
NtRp123
(dp124
g12
(lp125
F0.1666772918027937
aF0.33335456520952689
aF0.8135708583541158
asg14
g2
(g15
g4
NtRp126
(dp127
g18
I1
sg19
I00
sg20
(dp128
g24
I1
ssbsg25
g27
sg46
g32
(g33
(I0
tS'b'
tRp129
(I1
(I3
tg36
I00
S'\x18\xd7V\x87\xc6\xce\xa6\xbev\xd6\xd0\xfcVY\x03@q\r\xda\xf3\x89\xf9\x10@'
tbsg48
(dp130
sg50
I01
sbag2
(g9
g4
NtRp131
(dp132
g12
(lp133
F0.33335456520952689
aF0.16667727340673411
aF0.8135708583541158
asg14
g2
(g15
g4
NtRp134
(dp135
g18
I1
sg19
I00
sg20
(dp136
g24
I1
ssbsg25
g27
sg46
g32
(g33
(I0
tS'b'
tRp137
(I1
(I3
tg36
I00
S'\xdd\xf8~\x12\xb8\xc1\x00@o!P(VY\xf3?~\r\xda\xf3\x89\xf9\x10@'
tbsg48
(dp138
sg50
I01
sbag2
(g9
g4
NtRp139
(dp140
g12
(lp141
F0.33333299999999999
aF0.66666700000000001
aF0.31414878761085119
asg14
g2
(g15
g4
NtRp142
(dp143
g18
I1
sg19
I00
sg20
(dp144
g24
I1
ssbsg25
g27
sg46
g32
(g33
(I0
tS'b'
tRp145
(I1
(I3
tg36
I00
S'4\xb2I\x08i`\xd5\xbe\x16\xa3\xd7!\x07Y\x13@\xdc#\xf3\x9f\xde7\xfa?'
tbsg48
(dp146
sg50
I01
sbag2
(g9
g4
NtRp147
(dp148
g12
(lp149
F0.66666599999999998
aF0.33333299999999999
aF0.31414878761085119
asg14
g2
(g15
g4
NtRp150
(dp151
g18
I1
sg19
I00
sg20
(dp152
g24
I1
ssbsg25
g27
sg46
g32
(g33
(I0
tS'b'
tRp153
(I1
(I3
tg36
I00
S'&\x870+q\xc1\x10@\x87\xad\xc7\xbe\x04Y\x03@\x00.\xf3\x9f\xde7\xfa?'
tbsg48
(dp154
sg50
I01
sbag2
(g9
g4
NtRp155
(dp156
g12
(lp157
F0.66666700000000001
aF0.33333299999999999
aF0.81414878761085308
asg14
g2
(g15
g4
NtRp158
(dp159
g18
I1
sg19
I00
sg20
(dp160
g24
I1
ssbsg25
g27
sg46
g32
(g33
(I0
tS'b'
tRp161
(I1
(I3
tg36
I00
S'\xad\xda\xeeMs\xc1\x10@\xc26%\x89\x04Y\x03@{\xa7\xd8\x1f\xa0\xfc\x10@'
tbsg48
(dp162
sg50
I01
sbag2
(g9
g4
NtRp163
(dp164
g12
(lp165
F0.33333299999999999
aF0.66666599999999998
aF0.81414878761085308
asg14
g2
(g15
g4
NtRp166
(dp167
g18
I1
sg19
I00
sg20
(dp168
g24
I1
ssbsg25
g27
sg46
g32
(g33
(I0
tS'b'
tRp169
(I1
(I3
tg36
I00
S'\xc2If\x85L\x19\xb3\xbe\x80r\x1f \x05Y\x13@\xff\xa9\xd8\x1f\xa0\xfc\x10@'
tbsg48
(dp170
sg50
I01
sbasS'_charge'
p171
Nsg25
g27
sbsI1
g2
(g3
g4
NtRp172
(dp173
g7
(lp174
g2
(g9
g4
NtRp175
(dp176
g12
(lp177
F0
aF0.5
aF0.47084915971983687
asg14
g2
(g15
g4
NtRp178
(dp179
g18
I1
sg19
I00
sg20
(dp180
g24
I1
ssbsg25
g2
(g26
g4
NtRp181
(dp182
g29
Nsg30
Nsg31
g32
(g33
(I0
tS'b'
tRp183
(I1
(I3
tg36
I00
S'\x89\xf2:\xd1S\x8d\x1d@\x8b\xf2:\xd1S\x8d\x1d@(\xd7\x02\xd6\xab\xe5\x14@'
tbsg37
Nsg38
g32
(g33
(I0
tS'b'
tRp184
(I1
(I3
I3
tg36
I01
S'\x89\xf2:\xd1S\x8d\x1d@\xee\xb7\x90\\\xcc\x10\xb3\xbcI&\x81\xfaF\x81\x8e<I&\x81\xfaF\x81\x8e\xbc\x8b\xf2:\xd1S\x8d\x1d@I&\x81\xfaF\x81\x8e<I&\x81\xfaF\x81\x8e\xbcI&\x81\xfaF\x81\x8e<(\xd7\x02\xd6\xab\xe5\x14@'
tbsg40
g32
(g33
(I0
tS'b'
tRp185
(I1
(I3
tg36
I00
S'\x00\x00\x00\x00\x00\x80V@\x00\x00\x00\x00\x00\x80V@\x00\x00\x00\x00\x00\x80V@'
tbsg42
Nsg43
I01
sg44
(dp186
sbsg46
g32
(g33
(I0
tS'b'
tRp187
(I1
(I3
tg36
I00
S'\xcf\x165\xcb\x19\xf3\x9e\xbc\x8b\xf2:\xd1S\x8d\r@EK\xdd\xc2\xc6\xad\x03@'
tbsg48
(dp188
sg50
I01
sbag2
(g9
g4
NtRp189
(dp190
g12
(lp191
F0.5
aF0
aF0.47084915971983687
asg14
g2
(g15
g4
NtRp192
(dp193
g18
I1
sg19
I00
sg20
(dp194
g24
I1
ssbsg25
g181
sg46
g32
(g33
(I0
tS'b'
tRp195
(I1
(I3
tg36
I00
S'\x89\xf2:\xd1S\x8d\r@`!\xfc,\xb4t<\xbcEK\xdd\xc2\xc6\xad\x03@'
tbsg48
(dp196
sg50
I01
sbag2
(g9
g4
NtRp197
(dp198
g12
(lp199
F0
aF0.5
aF0.97084915971983754
asg14
g2
(g15
g4
NtRp200
(dp201
g18
I1
sg19
I00
sg20
(dp202
g24
I1
ssbsg25
g181
sg46
g32
(g33
(I0
tS'b'
tRp203
(I1
(I3
tg36
I00
S':\xcd\x94\x0c\xc8R\x97\xbc\x8b\xf2:\xd1S\x8d\r@:\x11pL\xb9I\x14@'
tbsg48
(dp204
sg50
I01
sbag2
(g9
g4
NtRp205
(dp206
g12
(lp207
F0.5
aF0
aF0.97084915971983754
asg14
g2
(g15
g4
NtRp208
(dp209
g18
I1
sg19
I00
sg20
(dp210
g24
I1
ssbsg25
g181
sg46
g32
(g33
(I0
tS'b'
tRp211
(I1
(I3
tg36
I00
S'\x89\xf2:\xd1S\x8d\r@?d\xb1\xb7\xfb\xb9|<:\x11pL\xb9I\x14@'
tbsg48
(dp212
sg50
I01
sbag2
(g9
g4
NtRp213
(dp214
g12
(lp215
F0.24996598497442221
aF0.74996554692386719
aF0.47084830996645638
asg14
g2
(g15
g4
NtRp216
(dp217
g18
I1
sg19
I00
sg20
(dp218
g24
I1
ssbsg25
g181
sg46
g32
(g33
(I0
tS'b'
tRp219
(I1
(I3
tg36
I00
S'?}tNL\x8c\xfd?\xb3\xf8\n#\xbc)\x16@))\x06o\xc4\xad\x03@'
tbsg48
(dp220
sg50
I01
sbag2
(g9
g4
NtRp221
(dp222
g12
(lp223
F0.2500344530761332
aF0.24996598497442221
aF0.47084830996645638
asg14
g2
(g15
g4
NtRp224
(dp225
g18
I1
sg19
I00
sg20
(dp226
g24
I1
ssbsg25
g181
sg46
g32
(g33
(I0
tS'b'
tRp227
(I1
(I3
tg36
I00
S'l\xe7\xbf\xb8^\x8e\xfd?B}tNL\x8c\xfd?))\x06o\xc4\xad\x03@'
tbsg48
(dp228
sg50
I01
sbag2
(g9
g4
NtRp229
(dp230
g12
(lp231
F0.75003401502557876
aF0.2500344530761332
aF0.47084830996645638
asg14
g2
(g15
g4
NtRp232
(dp233
g18
I1
sg19
I00
sg20
(dp234
g24
I1
ssbsg25
g181
sg46
g32
(g33
(I0
tS'b'
tRp235
(I1
(I3
tg36
I00
S'A\xd3\x9d\xbd@*\x16@n\xe7\xbf\xb8^\x8e\xfd?))\x06o\xc4\xad\x03@'
tbsg48
(dp236
sg50
I01
sbag2
(g9
g4
NtRp237
(dp238
g12
(lp239
F0.74996554692386719
aF0.75003401502557876
aF0.47084830996645638
asg14
g2
(g15
g4
NtRp240
(dp241
g18
I1
sg19
I00
sg20
(dp242
g24
I1
ssbsg25
g181
sg46
g32
(g33
(I0
tS'b'
tRp243
(I1
(I3
tg36
I00
S'\xb1\xf8\n#\xbc)\x16@C\xd3\x9d\xbd@*\x16@))\x06o\xc4\xad\x03@'
tbsg48
(dp244
sg50
I01
sbag2
(g9
g4
NtRp245
(dp246
g12
(lp247
F0.75003401502557876
aF0.74996554692386719
aF0.97084830996645766
asg14
g2
(g15
g4
NtRp248
(dp249
g18
I1
sg19
I00
sg20
(dp250
g24
I1
ssbsg25
g181
sg46
g32
(g33
(I0
tS'b'
tRp251
(I1
(I3
tg36
I00
S'A\xd3\x9d\xbd@*\x16@\xb3\xf8\n#\xbc)\x16@0\x80\x84"\xb8I\x14@'
tbsg48
(dp252
sg50
I01
sbag2
(g9
g4
NtRp253
(dp254
g12
(lp255
F0.74996554692386719
aF0.24996598497442221
aF0.97084830996645766
asg14
g2
(g15
g4
NtRp256
(dp257
g18
I1
sg19
I00
sg20
(dp258
g24
I1
ssbsg25
g181
sg46
g32
(g33
(I0
tS'b'
tRp259
(I1
(I3
tg36
I00
S'\xb1\xf8\n#\xbc)\x16@B}tNL\x8c\xfd?0\x80\x84"\xb8I\x14@'
tbsg48
(dp260
sg50
I01
sbag2
(g9
g4
NtRp261
(dp262
g12
(lp263
F0.24996598497442221
aF0.2500344530761332
aF0.97084830996645766
asg14
g2
(g15
g4
NtRp264
(dp265
g18
I1
sg19
I00
sg20
(dp266
g24
I1
ssbsg25
g181
sg46
g32
(g33
(I0
tS'b'
tRp267
(I1
(I3
tg36
I00
S'@}tNL\x8c\xfd?n\xe7\xbf\xb8^\x8e\xfd?0\x80\x84"\xb8I\x14@'
tbsg48
(dp268
sg50
I01
sbag2
(g9
g4
NtRp269
(dp270
g12
(lp271
F0.2500344530761332
aF0.75003401502557876
aF0.97084830996645766
asg14
g2
(g15
g4
NtRp272
(dp273
g18
I1
sg19
I00
sg20
(dp274
g24
I1
ssbsg25
g181
sg46
g32
(g33
(I0
tS'b'
tRp275
(I1
(I3
tg36
I00
S'k\xe7\xbf\xb8^\x8e\xfd?C\xd3\x9d\xbd@*\x16@0\x80\x84"\xb8I\x14@'
tbsg48
(dp276
sg50
I01
sbag2
(g9
g4
NtRp277
(dp278
g12
(lp279
F0.5
aF0.5
aF0.97084434804720088
asg14
g2
(g15
g4
NtRp280
(dp281
g18
I1
sg19
I00
sg20
(dp282
g24
I1
ssbsg25
g181
sg46
g32
(g33
(I0
tS'b'
tRp283
(I1
(I3
tg36
I00
S'\x89\xf2:\xd1S\x8d\r@\x8b\xf2:\xd1S\x8d\r@\x9c\xfc{\xb5\xb2I\x14@'
tbsg48
(dp284
sg50
I01
sbag2
(g9
g4
NtRp285
(dp286
g12
(lp287
F0.5
aF0.5
aF0.4708443480472011
asg14
g2
(g15
g4
NtRp288
(dp289
g18
I1
sg19
I00
sg20
(dp290
g24
I1
ssbsg25
g181
sg46
g32
(g33
(I0
tS'b'
tRp291
(I1
(I3
tg36
I00
S'\x89\xf2:\xd1S\x8d\r@\x8b\xf2:\xd1S\x8d\r@\x13"\xf5\x94\xb9\xad\x03@'
tbsg48
(dp292
sg50
I01
sbag2
(g9
g4
NtRp293
(dp294
g12
(lp295
F0
aF0
aF0.47083635363311921
asg14
g2
(g15
g4
NtRp296
(dp297
g18
I1
sg19
I00
sg20
(dp298
g24
I1
ssbsg25
g181
sg46
g32
(g33
(I0
tS'b'
tRp299
(I1
(I3
tg36
I00
S'\xd0h\xab\x83\xc8\xb9|<\xd0h\xab\x83\xc8\xb9|<\xa8eV\xaf\xa3\xad\x03@'
tbsg48
(dp300
sg50
I01
sbag2
(g9
g4
NtRp301
(dp302
g12
(lp303
F0
aF0
aF-0.0291636463668805
asg14
g2
(g15
g4
NtRp304
(dp305
g18
I1
sg19
I00
sg20
(dp306
g24
I1
ssbsg25
g181
sg46
g32
(g33
(I0
tS'b'
tRp307
(I1
(I3
tg36
I00
S'>\xd7[m\xe7w<\xbc>\xd7[m\xe7w<\xbc\xc4\x17\xc7j\x82\x80\xc3\xbf'
tbsg48
(dp308
sg50
I01
sbasg171
Nsg25
g181
sbsI2
g2
(g3
g4
NtRp309
(dp310
g7
(lp311
g2
(g9
g4
NtRp312
(dp313
g12
(lp314
F0
aF0.5
aF0
asg14
g2
(g15
g4
NtRp315
(dp316
g18
I1
sg19
I00
sg20
(dp317
g24
I1
ssbsg25
g2
(g26
g4
NtRp318
(dp319
g29
Nsg30
Nsg31
g32
(g33
(I0
tS'b'
tRp320
(I1
(I3
tg35
(S'f8'
I0
I1
tRp321
(I3
S'<'
NNNI-1
I-1
I0
tbI00
S"\xd6\xba\xd9\x0b'\x8b\x15@\xb7\xf2;\xf1\x01\xf3\x1e@O>\x1aB\xb4\xf2\x1c@"
tbsg37
Nsg38
g32
(g33
(I0
tS'b'
tRp322
(I1
(I3
I3
tg321
I01
S"\xd6\xba\xd9\x0b'\x8b\x15@\xb7\xdc\xe0;\xf5\xe0\xa6<R\xca8\xcc\xe0\xf8\xd4\xbc\xb7\xdc\xe0;\xf5\xe0\xb6<\xb7\xf2;\xf1\x01\xf3\x1e@\x1c\xef\x88\xab\t\xc9\xc8\xbc\x89\xa5\xe8\xec\xb7(\xc1\xbc\x80\x011\x1b\x1e\xb1\xba<O>\x1aB\xb4\xf2\x1c@"
tbsg40
g32
(g33
(I0
tS'b'
tRp323
(I1
(I3
tg321
I00
S'\x00\x00\x00\x00\x00\x80V@\x01\x00\x00\x00\x00\x80V@\x00\x00\x00\x00\x00\x80V@'
tbsg42
Nsg43
I01
sg44
(dp324
sbsg46
g32
(g33
(I0
tS'b'
tRp325
(I1
(I3
tg321
I00
S'\xb7\xdc\xe0;\xf5\xe0\x96<\xb7\xf2;\xf1\x01\xf3\x0e@\x80\x011\x1b\x1e\xb1\xaa<'
tbsg48
(dp326
sg50
I01
sbag2
(g9
g4
NtRp327
(dp328
g12
(lp329
F0.5
aF0.5
aF0
asg14
g2
(g15
g4
NtRp330
(dp331
g18
I1
sg19
I00
sg20
(dp332
g24
I1
ssbsg25
g318
sg46
g32
(g33
(I0
tS'b'
tRp333
(I1
(I3
tg321
I00
S"\xd6\xba\xd9\x0b'\x8b\x05@\xb7\xf2;\xf1\x01\xf3\x0e@H&\x81\xfaF\x81\x8e\xbc"
tbsg48
(dp334
sg50
I01
sbag2
(g9
g4
NtRp335
(dp336
g12
(lp337
F0.9790496509396881
aF0.18275609519647329
aF0.81714212343413317
asg14
g2
(g15
g4
NtRp338
(dp339
g18
I1
sg19
I00
sg20
(dp340
g24
I1
ssbsg25
g318
sg46
g32
(g33
(I0
tS'b'
tRp341
(I1
(I3
tg321
I00
S'\x7f\x16\xfc\xaf\x9b\x17\x15@\xd1\x00.f\xe9\x9f\xf6?\x0f\x90\x138\x99\xa7\x17@'
tbsg48
(dp342
sg50
I01
sbag2
(g9
g4
NtRp343
(dp344
g12
(lp345
F0.0209503490603088
aF0.81724390480352949
aF0.18285787656586869
asg14
g2
(g15
g4
NtRp346
(dp347
g18
I1
sg19
I00
sg20
(dp348
g24
I1
ssbsg25
g318
sg46
g32
(g33
(I0
tS'b'
tRp349
(I1
(I3
tg321
I00
S'\xd6\x10i\xf7\xd6\xe2\xbc?\x9ar\xb0\x97\x07K\x19@?\xb9\x1a(l,\xf5?'
tbsg48
(dp350
sg50
I01
sbag2
(g9
g4
NtRp351
(dp352
g12
(lp353
F0.5209503490603119
aF0.81724390480352949
aF0.81714212343413317
asg14
g2
(g15
g4
NtRp354
(dp355
g18
I1
sg19
I00
sg20
(dp356
g24
I1
ssbsg25
g318
sg46
g32
(g33
(I0
tS'b'
tRp357
(I1
(I3
tg321
I00
S'\x81\x03\x95\xc3=r\x06@\x99r\xb0\x97\x07K\x19@\x0f\x90\x138\x99\xa7\x17@'
tbsg48
(dp358
sg50
I01
sbag2
(g9
g4
NtRp359
(dp360
g12
(lp361
F0.47904965093969037
aF0.18275609519647329
aF0.18285787656586869
asg14
g2
(g15
g4
NtRp362
(dp363
g18
I1
sg19
I00
sg20
(dp364
g24
I1
ssbsg25
g318
sg46
g32
(g33
(I0
tS'b'
tRp365
(I1
(I3
tg321
I00
S'Er\x1eT\x10\xa4\x04@\xd3\x00.f\xe9\x9f\xf6?=\xb9\x1a(l,\xf5?'
tbsg48
(dp366
sg50
I01
sbag2
(g9
g4
NtRp367
(dp368
g12
(lp369
F0.47904965093969037
aF0.81724390480352949
aF0.18285787656586869
asg14
g2
(g15
g4
NtRp370
(dp371
g18
I1
sg19
I00
sg20
(dp372
g24
I1
ssbsg25
g318
sg46
g32
(g33
(I0
tS'b'
tRp373
(I1
(I3
tg321
I00
S'Er\x1eT\x10\xa4\x04@\x9ar\xb0\x97\x07K\x19@>\xb9\x1a(l,\xf5?'
tbsg48
(dp374
sg50
I01
sbag2
(g9
g4
NtRp375
(dp376
g12
(lp377
F0.5209503490603119
aF0.18275609519647329
aF0.81714212343413317
asg14
g2
(g15
g4
NtRp378
(dp379
g18
I1
sg19
I00
sg20
(dp380
g24
I1
ssbsg25
g318
sg46
g32
(g33
(I0
tS'b'
tRp381
(I1
(I3
tg321
I00
S'\x81\x03\x95\xc3=r\x06@\xd1\x00.f\xe9\x9f\xf6?\x0f\x90\x138\x99\xa7\x17@'
tbsg48
(dp382
sg50
I01
sbag2
(g9
g4
NtRp383
(dp384
g12
(lp385
F0.0209503490603088
aF0.18275609519647329
aF0.18285787656586869
asg14
g2
(g15
g4
NtRp386
(dp387
g18
I1
sg19
I00
sg20
(dp388
g24
I1
ssbsg25
g318
sg46
g32
(g33
(I0
tS'b'
tRp389
(I1
(I3
tg321
I00
S'\xcf\x10i\xf7\xd6\xe2\xbc?\xd2\x00.f\xe9\x9f\xf6?>\xb9\x1a(l,\xf5?'
tbsg48
(dp390
sg50
I01
sbag2
(g9
g4
NtRp391
(dp392
g12
(lp393
F0.9790496509396881
aF0.81724390480352949
aF0.81714212343413317
asg14
g2
(g15
g4
NtRp394
(dp395
g18
I1
sg19
I00
sg20
(dp396
g24
I1
ssbsg25
g318
sg46
g32
(g33
(I0
tS'b'
tRp397
(I1
(I3
tg321
I00
S'\x7f\x16\xfc\xaf\x9b\x17\x15@\x99r\xb0\x97\x07K\x19@\x0f\x90\x138\x99\xa7\x17@'
tbsg48
(dp398
sg50
I01
sbag2
(g9
g4
NtRp399
(dp400
g12
(lp401
F0
aF0.34644991312777518
aF0.5
asg14
g2
(g15
g4
NtRp402
(dp403
g18
I1
sg19
I00
sg20
(dp404
g24
I1
ssbsg25
g318
sg46
g32
(g33
(I0
tS'b'
tRp405
(I1
(I3
tg321
I00
S'\x1f\xcaU\xac\x97\xfd\xc2\xbc\xbd8\xa6\xbf\xd9q\x05@O>\x1aB\xb4\xf2\x0c@'
tbsg48
(dp406
sg50
I01
sbag2
(g9
g4
NtRp407
(dp408
g12
(lp409
F0
aF0.65355008687222682
aF0.5
asg14
g2
(g15
g4
NtRp410
(dp411
g18
I1
sg19
I00
sg20
(dp412
g24
I1
ssbsg25
g318
sg46
g32
(g33
(I0
tS'b'
tRp413
(I1
(I3
tg321
I00
S'T\x93#\x9d\xec;\xc1\xbci\xd6h\x11\x15:\x14@P>\x1aB\xb4\xf2\x0c@'
tbsg48
(dp414
sg50
I01
sbag2
(g9
g4
NtRp415
(dp416
g12
(lp417
F0.5
aF0.65355008687222682
aF0.5
asg14
g2
(g15
g4
NtRp418
(dp419
g18
I1
sg19
I00
sg20
(dp420
g24
I1
ssbsg25
g318
sg46
g32
(g33
(I0
tS'b'
tRp421
(I1
(I3
tg321
I00
S"\xd5\xba\xd9\x0b'\x8b\x05@i\xd6h\x11\x15:\x14@O>\x1aB\xb4\xf2\x0c@"
tbsg48
(dp422
sg50
I01
sbag2
(g9
g4
NtRp423
(dp424
g12
(lp425
F0.5
aF0.34644991312777518
aF0.5
asg14
g2
(g15
g4
NtRp426
(dp427
g18
I1
sg19
I00
sg20
(dp428
g24
I1
ssbsg25
g318
sg46
g32
(g33
(I0
tS'b'
tRp429
(I1
(I3
tg321
I00
S"\xd5\xba\xd9\x0b'\x8b\x05@\xbd8\xa6\xbf\xd9q\x05@O>\x1aB\xb4\xf2\x0c@"
tbsg48
(dp430
sg50
I01
sbag2
(g9
g4
NtRp431
(dp432
g12
(lp433
F0.25
aF0
aF0.53365697554980585
asg14
g2
(g15
g4
NtRp434
(dp435
g18
I1
sg19
I00
sg20
(dp436
g24
I1
ssbsg25
g318
sg46
g32
(g33
(I0
tS'b'
tRp437
(I1
(I3
tg321
I00
S"\xd3\xba\xd9\x0b'\x8b\xf5?\xd8!\xd9h\xe8\xbb\xb4\xbc.\xd8\xc8C\x8c\xe5\x0e@"
tbsg48
(dp438
sg50
I01
sbag2
(g9
g4
NtRp439
(dp440
g12
(lp441
F0.75
aF0
aF0.46634302445019221
asg14
g2
(g15
g4
NtRp442
(dp443
g18
I1
sg19
I00
sg20
(dp444
g24
I1
ssbsg25
g318
sg46
g32
(g33
(I0
tS'b'
tRp445
(I1
(I3
tg321
I00
S'\x1fL\xe3H](\x10@4~_\xc9\xd6\xd4\x97\xbcO\xa4k@\xdc\xff\n@'
tbsg48
(dp446
sg50
I01
sbasg171
Nsg25
g318
sbsI3
g2
(g3
g4
NtRp447
(dp448
g7
(lp449
g2
(g9
g4
NtRp450
(dp451
g12
(lp452
F0.25000416326596131
aF0.25000416326596131
aF0.12500173576048129
asg14
g2
(g15
g4
NtRp453
(dp454
g18
I1
sg19
I00
sg20
(dp455
g24
I1
ssbsg25
g2
(g26
g4
NtRp456
(dp457
g29
Nsg30
Nsg31
g32
(g33
(I0
tS'b'
tRp458
(I1
(I3
tg321
I00
S'\xd9\xc8y\xaal\xe5\x14@\xd9\xc8y\xaal\xe5\x14@\xe3\x8d\xc4\xe7\x8f\xe5$@'
tbsg37
Nsg38
g32
(g33
(I0
tS'b'
tRp459
(I1
(I3
I3
tg321
I01
S'\xd9\xc8y\xaal\xe5\x14@I&\x81\xfaF\x81\x9e<I&\x81\xfaF\x81\x9e<I&\x81\xfaF\x81\x9e<\xd9\xc8y\xaal\xe5\x14@\xb7\xdc\xe0;\xf5\xe0\xa6\xbcI&\x81\xfaF\x81\x8e\xbcI&\x81\xfaF\x81\x9e\xbc\xe3\x8d\xc4\xe7\x8f\xe5$@'
tbsg40
g32
(g33
(I0
tS'b'
tRp460
(I1
(I3
tg321
I00
S'\x00\x00\x00\x00\x00\x80V@\x00\x00\x00\x00\x00\x80V@\x00\x00\x00\x00\x00\x80V@'
tbsg42
Nsg43
I01
sg44
(dp461
sbsg46
g32
(g33
(I0
tS'b'
tRp462
(I1
(I3
tg321
I00
S'ts\xb4x\x83\xe5\xf4?ts\xb4x\x83\xe5\xf4?\xd9\x1f\x13\xec\xa2\xe5\xf4?'
tbsg48
(dp463
sg50
I01
sbag2
(g9
g4
NtRp464
(dp465
g12
(lp466
F0.74999583673404002
aF0.74999583673404002
aF0.87499826423951932
asg14
g2
(g15
g4
NtRp467
(dp468
g18
I1
sg19
I00
sg20
(dp469
g24
I1
ssbsg25
g456
sg46
g32
(g33
(I0
tS'b'
tRp470
(I1
(I3
tg321
I00
S'\x08X\x99\x98\x17X\x0f@\x08X\x99\x98\x17X\x0f@\xeb)B\x8a\xdbH"@'
tbsg48
(dp471
sg50
I01
sbag2
(g9
g4
NtRp472
(dp473
g12
(lp474
F0.2499958367340383
aF0.75000416326595998
aF0.62500173576048068
asg14
g2
(g15
g4
NtRp475
(dp476
g18
I1
sg19
I00
sg20
(dp477
g24
I1
ssbsg25
g456
sg46
g32
(g33
(I0
tS'b'
tRp478
(I1
(I3
tg321
I00
S'5\x1e?\xdcU\xe5\xf4?\x83\x02\xd4f.X\x0f@\xd2U\xc9\xa2\xf8\x1e\x1a@'
tbsg48
(dp479
sg50
I01
sbag2
(g9
g4
NtRp480
(dp481
g12
(lp482
F0.75000416326595998
aF0.2499958367340383
aF0.37499826423951849
asg14
g2
(g15
g4
NtRp483
(dp484
g18
I1
sg19
I00
sg20
(dp485
g24
I1
ssbsg25
g456
sg46
g32
(g33
(I0
tS'b'
tRp486
(I1
(I3
tg321
I00
S'\x83\x02\xd4f.X\x0f@5\x1e?\xdcU\xe5\xf4?\xd4\x8b\x7fYNX\x0f@'
tbsg48
(dp487
sg50
I01
sbag2
(g9
g4
NtRp488
(dp489
g12
(lp490
F0.74999583673404002
aF0.74999583673404002
aF0.12500173576048129
asg14
g2
(g15
g4
NtRp491
(dp492
g18
I1
sg19
I00
sg20
(dp493
g24
I1
ssbsg25
g456
sg46
g32
(g33
(I0
tS'b'
tRp494
(I1
(I3
tg321
I00
S'\x08X\x99\x98\x17X\x0f@\x08X\x99\x98\x17X\x0f@\xd8\x1f\x13\xec\xa2\xe5\xf4?'
tbsg48
(dp495
sg50
I01
sbag2
(g9
g4
NtRp496
(dp497
g12
(lp498
F0.25000416326596131
aF0.25000416326596131
aF0.87499826423951932
asg14
g2
(g15
g4
NtRp499
(dp500
g18
I1
sg19
I00
sg20
(dp501
g24
I1
ssbsg25
g456
sg46
g32
(g33
(I0
tS'b'
tRp502
(I1
(I3
tg321
I00
S'ts\xb4x\x83\xe5\xf4?ss\xb4x\x83\xe5\xf4?\xeb)B\x8a\xdbH"@'
tbsg48
(dp503
sg50
I01
sbag2
(g9
g4
NtRp504
(dp505
g12
(lp506
F0.75000416326595998
aF0.2499958367340383
aF0.62500173576048068
asg14
g2
(g15
g4
NtRp507
(dp508
g18
I1
sg19
I00
sg20
(dp509
g24
I1
ssbsg25
g456
sg46
g32
(g33
(I0
tS'b'
tRp510
(I1
(I3
tg321
I00
S'\x83\x02\xd4f.X\x0f@5\x1e?\xdcU\xe5\xf4?\xd2U\xc9\xa2\xf8\x1e\x1a@'
tbsg48
(dp511
sg50
I01
sbag2
(g9
g4
NtRp512
(dp513
g12
(lp514
F0.2499958367340383
aF0.75000416326595998
aF0.37499826423951849
asg14
g2
(g15
g4
NtRp515
(dp516
g18
I1
sg19
I00
sg20
(dp517
g24
I1
ssbsg25
g456
sg46
g32
(g33
(I0
tS'b'
tRp518
(I1
(I3
tg321
I00
S'5\x1e?\xdcU\xe5\xf4?\x83\x02\xd4f.X\x0f@\xd4\x8b\x7fYNX\x0f@'
tbsg48
(dp519
sg50
I01
sbag2
(g9
g4
NtRp520
(dp521
g12
(lp522
F0.74999685039940822
aF0.74999685039940822
aF0.37499827124977192
asg14
g2
(g15
g4
NtRp523
(dp524
g18
I1
sg19
I00
sg20
(dp525
g24
I1
ssbsg25
g456
sg46
g32
(g33
(I0
tS'b'
tRp526
(I1
(I3
tg321
I00
S'\x8a"W_\x1aX\x0f@\x8a"W_\x1aX\x0f@\x9c?TcNX\x0f@'
tbsg48
(dp527
sg50
I01
sbag2
(g9
g4
NtRp528
(dp529
g12
(lp530
F0.25000314960059222
aF0.25000314960059222
aF0.62500172875022741
asg14
g2
(g15
g4
NtRp531
(dp532
g18
I1
sg19
I00
sg20
(dp533
g24
I1
ssbsg25
g456
sg46
g32
(g33
(I0
tS'b'
tRp534
(I1
(I3
tg321
I00
S'Z\xde8\xeb}\xe5\xf4?Z\xde8\xeb}\xe5\xf4?\xf0\xfb\xde\x9d\xf8\x1e\x1a@'
tbsg48
(dp535
sg50
I01
sbag2
(g9
g4
NtRp536
(dp537
g12
(lp538
F0.75000314960059178
aF0.24999685039940769
aF0.87499827124977259
asg14
g2
(g15
g4
NtRp539
(dp540
g18
I1
sg19
I00
sg20
(dp541
g24
I1
ssbsg25
g456
sg46
g32
(g33
(I0
tS'b'
tRp542
(I1
(I3
tg321
I00
S'\x018\x16\xa0+X\x0f@U\xb3\xbai[\xe5\xf4?\xddV\xb7\x8c\xdbH"@'
tbsg48
(dp543
sg50
I01
sbag2
(g9
g4
NtRp544
(dp545
g12
(lp546
F0.24999685039940769
aF0.75000314960059178
aF0.12500172875022811
asg14
g2
(g15
g4
NtRp547
(dp548
g18
I1
sg19
I00
sg20
(dp549
g24
I1
ssbsg25
g456
sg46
g32
(g33
(I0
tS'b'
tRp550
(I1
(I3
tg321
I00
S'V\xb3\xbai[\xe5\xf4?\x018\x16\xa0+X\x0f@U\xb8i\xd8\xa2\xe5\xf4?'
tbsg48
(dp551
sg50
I01
sbag2
(g9
g4
NtRp552
(dp553
g12
(lp554
F0.25000314960059222
aF0.25000314960059222
aF0.37499827124977192
asg14
g2
(g15
g4
NtRp555
(dp556
g18
I1
sg19
I00
sg20
(dp557
g24
I1
ssbsg25
g456
sg46
g32
(g33
(I0
tS'b'
tRp558
(I1
(I3
tg321
I00
S'Z\xde8\xeb}\xe5\xf4?Z\xde8\xeb}\xe5\xf4?\x9c?TcNX\x0f@'
tbsg48
(dp559
sg50
I01
sbag2
(g9
g4
NtRp560
(dp561
g12
(lp562
F0.74999685039940822
aF0.74999685039940822
aF0.62500172875022741
asg14
g2
(g15
g4
NtRp563
(dp564
g18
I1
sg19
I00
sg20
(dp565
g24
I1
ssbsg25
g456
sg46
g32
(g33
(I0
tS'b'
tRp566
(I1
(I3
tg321
I00
S'\x8a"W_\x1aX\x0f@\x8a"W_\x1aX\x0f@\xf0\xfb\xde\x9d\xf8\x1e\x1a@'
tbsg48
(dp567
sg50
I01
sbag2
(g9
g4
NtRp568
(dp569
g12
(lp570
F0.24999685039940769
aF0.75000314960059178
aF0.87499827124977259
asg14
g2
(g15
g4
NtRp571
(dp572
g18
I1
sg19
I00
sg20
(dp573
g24
I1
ssbsg25
g456
sg46
g32
(g33
(I0
tS'b'
tRp574
(I1
(I3
tg321
I00
S'V\xb3\xbai[\xe5\xf4?\x018\x16\xa0+X\x0f@\xddV\xb7\x8c\xdbH"@'
tbsg48
(dp575
sg50
I01
sbag2
(g9
g4
NtRp576
(dp577
g12
(lp578
F0.75000314960059178
aF0.24999685039940769
aF0.12500172875022811
asg14
g2
(g15
g4
NtRp579
(dp580
g18
I1
sg19
I00
sg20
(dp581
g24
I1
ssbsg25
g456
sg46
g32
(g33
(I0
tS'b'
tRp582
(I1
(I3
tg321
I00
S'\x018\x16\xa0+X\x0f@V\xb3\xbai[\xe5\xf4?U\xb8i\xd8\xa2\xe5\xf4?'
tbsg48
(dp583
sg50
I01
sbasg171
Nsg25
g456
sbsI4
g2
(g3
g4
NtRp584
(dp585
g7
(lp586
g2
(g9
g4
NtRp587
(dp588
g12
(lp589
F0.93785680701921215
aF0.43785680701921659
aF0.5
asg14
g2
(g15
g4
NtRp590
(dp591
g18
I1
sg19
I00
sg20
(dp592
g24
I1
ssbsg25
g2
(g26
g4
NtRp593
(dp594
g29
Nsg30
Nsg31
g32
(g33
(I0
tS'b'
tRp595
(I1
(I3
tg35
(S'f8'
I0
I1
tRp596
(I3
S'<'
NNNI-1
I-1
I0
tbI00
S'\xb1\x03\xcd\xa2\x91& @\x8a\xcd6\xcc\x81& @\x84L\xd6u\xba& @'
tbsg37
Nsg38
g32
(g33
(I0
tS'b'
tRp597
(I1
(I3
I3
tg596
I01
S'\xe7\xf0\x89\xc2h\xee\x1f@\x0f\xb1\xd8Q`\t\xe9?@\x9f\x0eQ\xf0w\n\xc0\xcb\x95\xeek\xc9\xde\xf1?DH\xc7\xf4\t\x13 @@\xb7d.\tq\x15\xc0\xee\x01p\xc1\x19:\xdf\xbfv\xd0\x0b#\xb5(\x97?\x87\x151*\x8f6\x14@'
tbsg40
g32
(g33
(I0
tS'b'
tRp598
(I1
(I3
tg596
I00
S'z\xd5\xca\x9c\x0b\xca`@~\xfdesY\x94^@\xa2\xf9?\x12\xac S@'
tbsg42
Nsg43
I00
sg44
(dp599
sbsg46
g32
(g33
(I0
tS'b'
tRp600
(I1
(I3
tg596
I00
S'X.\xef@=\xb3\x18@,\x07m7\xce.\xfe?7\xe0\xa4\xb8\xac\xa1\x00@'
tbsg48
(dp601
sg50
I01
sbag2
(g9
g4
NtRp602
(dp603
g12
(lp604
F0.9221573677779854
aF-0.066023036925715498
aF0.48769812462703938
asg14
g2
(g15
g4
NtRp605
(dp606
g18
I1
sg19
I00
sg20
(dp607
g24
I1
ssbsg25
g593
sg46
g32
(g33
(I0
tS'b'
tRp608
(I1
(I3
tg596
I00
S'\xd9c\xde\xba\xe3\xc8\x16@b\xbc\x89\xd4e\xeb\x00\xc0#\xe0"\xd4\xb5\x1a\x00@'
tbsg48
(dp609
sg50
I01
sbag2
(g9
g4
NtRp610
(dp611
g12
(lp612
F0.44627883844725358
aF0.43445924315095252
aF0.51230187537296645
asg14
g2
(g15
g4
NtRp613
(dp614
g18
I1
sg19
I00
sg20
(dp615
g24
I1
ssbsg25
g593
sg46
g32
(g33
(I0
tS'b'
tRp616
(I1
(I3
tg596
I00
S'd\xb6\xd5q\xf5\xa8\x01@\xb4\x1a\\\x93\xfd\xe7\xf3?t\x0b\x0b\xde\x0b\x0c\x03@'
tbsg48
(dp617
sg50
I01
sbag2
(g9
g4
NtRp618
(dp619
g12
(lp620
F0.9221573677779854
aF0.43445924315095252
aF0.98818040470369628
asg14
g2
(g15
g4
NtRp621
(dp622
g18
I1
sg19
I00
sg20
(dp623
g24
I1
ssbsg25
g593
sg46
g32
(g33
(I0
tS'b'
tRp624
(I1
(I3
tg596
I00
S'}\xf5\x92K>\xba\x11@\xa0\x8d\x06\x0b\xd9\xce\xe8\xbf\x16\xa6}\x94\xb86\x12@'
tbsg48
(dp625
sg50
I01
sbag2
(g9
g4
NtRp626
(dp627
g12
(lp628
F0.44627883844725358
aF-0.066023036925715498
aF0.011819595296298301
asg14
g2
(g15
g4
NtRp629
(dp630
g18
I1
sg19
I00
sg20
(dp631
g24
I1
ssbsg25
g593
sg46
g32
(g33
(I0
tS'b'
tRp632
(I1
(I3
tg596
I00
S'p\x93lP@\xc6\x0b@\x16cA\x03\x19v\xb8\xbfN\x11\xd6l\xf7j\xc4\xbf'
tbsg48
(dp633
sg50
I01
sbag2
(g9
g4
NtRp634
(dp635
g12
(lp636
F0.42799668311617972
aF0.42799668311617972
aF0
asg14
g2
(g15
g4
NtRp637
(dp638
g18
I1
sg19
I00
sg20
(dp639
g24
I1
ssbsg25
g593
sg46
g32
(g33
(I0
tS'b'
tRp640
(I1
(I3
tg596
I00
S'k\x1b\xdf\xba\t\x03\x0e@\x13L\xb6\x86\xe3W\x0f@\xf1\xd6\x8f\xb4\xb6}\xc9\xbf'
tbsg48
(dp641
sg50
I01
sbag2
(g9
g4
NtRp642
(dp643
g12
(lp644
F0.13768555551552561
aF0.13768555551552561
aF0
asg14
g2
(g15
g4
NtRp645
(dp646
g18
I1
sg19
I00
sg20
(dp647
g24
I1
ssbsg25
g593
sg46
g32
(g33
(I0
tS'b'
tRp648
(I1
(I3
tg596
I00
S'|"\xa0G;O\xf3?s\xb7\x1e\x8c\x88*\xf4?\xb2\x7f<H\x9df\xb0\xbf'
tbsg48
(dp649
sg50
I01
sbag2
(g9
g4
NtRp650
(dp651
g12
(lp652
F0.94346464268772601
aF0.94346464268772601
aF0
asg14
g2
(g15
g4
NtRp653
(dp654
g18
I1
sg19
I00
sg20
(dp655
g24
I1
ssbsg25
g593
sg46
g32
(g33
(I0
tS'b'
tRp656
(I1
(I3
tg596
I00
S'?G\x0f`\x12\x8a @\xa4\xd1\xd5\x92\xe9E!@\xc5x\x83O\x8e\x18\xdc\xbf'
tbsg48
(dp657
sg50
I01
sbag2
(g9
g4
NtRp658
(dp659
g12
(lp660
F0.75864462023404688
aF0.75864462023404688
aF0
asg14
g2
(g15
g4
NtRp661
(dp662
g18
I1
sg19
I00
sg20
(dp663
g24
I1
ssbsg25
g593
sg46
g32
(g33
(I0
tS'b'
tRp664
(I1
(I3
tg596
I00
S'_\x8e\x03\xc4F\x99\x1a@\x1b\xb2\xc7\x13]\xc7\x1b@%\x86\x0b\xee\x91\x97\xd6\xbf'
tbsg48
(dp665
sg50
I01
sbag2
(g9
g4
NtRp666
(dp667
g12
(lp668
F0.31213753575063002
aF0.6149999176629446
aF0.30286238191231912
asg14
g2
(g15
g4
NtRp669
(dp670
g18
I1
sg19
I00
sg20
(dp671
g24
I1
ssbsg25
g593
sg46
g32
(g33
(I0
tS'b'
tRp672
(I1
(I3
tg596
I00
S'\xafh\xd5W\xb0\x88\xff?\xe0\x1f\xd9u!X\r@\x1b.\x02\xb1\xdfE\xf6?'
tbsg48
(dp673
sg50
I01
sbag2
(g9
g4
NtRp674
(dp675
g12
(lp676
F0.31213753575063002
aF1.0092751538383231
aF0.69713761808767927
asg14
g2
(g15
g4
NtRp677
(dp678
g18
I1
sg19
I00
sg20
(dp679
g24
I1
ssbsg25
g593
sg46
g32
(g33
(I0
tS'b'
tRp680
(I1
(I3
tg596
I00
S',\xca\xd9\xbc\x182\xef?\xb0\xec:Q\xca\xe4\x12@8\x8f\xd2\x9e\x99%\x0b@'
tbsg48
(dp681
sg50
I01
sbag2
(g9
g4
NtRp682
(dp683
g12
(lp684
F0.74995942060829757
aF0.24995942060829751
aF0.5
asg14
g2
(g15
g4
NtRp685
(dp686
g18
I1
sg19
I00
sg20
(dp687
g24
I1
ssbsg25
g593
sg46
g32
(g33
(I0
tS'b'
tRp688
(I1
(I3
tg596
I00
S'\xca\x1apB\xc0\x1c\x12@ \xa1\xbd\xd6\x98L\xc5?m\x8a\xe5\x00\xbbT\x01@'
tbsg48
(dp689
sg50
I01
sbag2
(g9
g4
NtRp690
(dp691
g12
(lp692
F0.66996505517334026
aF0.0028253765490236001
aF0.66713967862431234
asg14
g2
(g15
g4
NtRp693
(dp694
g18
I1
sg19
I00
sg20
(dp695
g24
I1
ssbsg25
g593
sg46
g32
(g33
(I0
tS'b'
tRp696
(I1
(I3
tg596
I00
S'\x9d\x9a\x8c\xab*%\t@\x1a\xe0\x10n\xedp\x06\xc0\xf7\x96\xa8\xa9\xf7Z\x08@'
tbsg48
(dp697
sg50
I01
sbag2
(g9
g4
NtRp698
(dp699
g12
(lp700
F0.33568569792470088
aF0.0028253765490236001
aF0.33286032137567573
asg14
g2
(g15
g4
NtRp701
(dp702
g18
I1
sg19
I00
sg20
(dp703
g24
I1
ssbsg25
g593
sg46
g32
(g33
(I0
tS'b'
tRp704
(I1
(I3
tg596
I00
S'\x9a\x13\\\x1cMJ\xf9?\x86C\x11N\xa0/\xf6\xbf\x9c\xc7u\xd9\x01K\xf8?'
tbsg48
(dp705
sg50
I01
sbag2
(g9
g4
NtRp706
(dp707
g12
(lp708
F0.29242872669325698
aF0.53439216384962962
aF0.75803656284362841
asg14
g2
(g15
g4
NtRp709
(dp710
g18
I1
sg19
I00
sg20
(dp711
g24
I1
ssbsg25
g593
sg46
g32
(g33
(I0
tS'b'
tRp712
(I1
(I3
tg596
I00
S'\x90\xe9Sd\xc2K\xcf?@\x18\x91\x141\xdd\xe1?\x87W1\x92\x8c\x99\r@'
tbsg48
(dp713
sg50
I01
sbag2
(g9
g4
NtRp714
(dp715
g12
(lp716
F0.77635560100599599
aF0.53439216384962962
aF0.241963437156376
asg14
g2
(g15
g4
NtRp717
(dp718
g18
I1
sg19
I00
sg20
(dp719
g24
I1
ssbsg25
g593
sg46
g32
(g33
(I0
tS'b'
tRp720
(I1
(I3
tg596
I00
S']\x8aY\xac\x9fB\x17@\xc6b#\x84\xb7\xeb\x0e@\xca\x1b\xf5\x05Od\xeb?'
tbsg48
(dp721
sg50
I01
sbasg171
Nsg25
g593
sbsI5
g2
(g3
g4
NtRp722
(dp723
g7
(lp724
g2
(g9
g4
NtRp725
(dp726
g12
(lp727
F0
aF0.5
aF0.49999717198498078
asg14
g2
(g15
g4
NtRp728
(dp729
g18
I1
sg19
I00
sg20
(dp730
g24
I1
ssbsg25
g2
(g26
g4
NtRp731
(dp732
g29
Nsg30
Nsg31
g32
(g33
(I0
tS'b'
tRp733
(I1
(I3
tg596
I00
S'6\xe0\xd5"O\xc6\x1e@4\xe0\xd5"O\xc6\x1e@\x801u\x02V\xc1\x15@'
tbsg37
Nsg38
g32
(g33
(I0
tS'b'
tRp734
(I1
(I3
I3
tg596
I01
S'6\xe0\xd5"O\xc6\x1e@R\xca8\xcc\xe0\xf8\xc4\xbc\x08\xb1\xb1\xb2\xc4Y\x02\xbd\xb7\xdc\xe0;\xf5\xe0\xa6\xbc4\xe0\xd5"O\xc6\x1e@\xad=u\xbfR\xa9\x03=\x06\xc8C>\xde\xbb\x14\xbdg\xff\xec\xa9\x14\xd7\x13=\x801u\x02V\xc1\x15@'
tbsg40
g32
(g33
(I0
tS'b'
tRp735
(I1
(I3
tg596
I00
S'\xf0\xff\xff\xff\xff\x7fV@\x11\x00\x00\x00\x00\x80V@\x00\x00\x00\x00\x00\x80V@'
tbsg42
Nsg43
I01
sg44
(dp736
sbsg46
g32
(g33
(I0
tS'b'
tRp737
(I1
(I3
tg596
I00
S'\xec\x8c\x1e\xf2K\xa9\xf3\xbc>\xe0\xd5"O\xc6\x0e@\xadS\r\xf2M\xc1\x05@'
tbsg48
(dp738
sg50
I01
sbag2
(g9
g4
NtRp739
(dp740
g12
(lp741
F0.5
aF0
aF0.50000282801501938
asg14
g2
(g15
g4
NtRp742
(dp743
g18
I1
sg19
I00
sg20
(dp744
g24
I1
ssbsg25
g731
sg46
g32
(g33
(I0
tS'b'
tRp745
(I1
(I3
tg596
I00
S'-\xe0\xd5"O\xc6\x0e@\xe6\t>4\xd6M\xf3<T\x0f\xdd\x12^\xc1\x05@'
tbsg48
(dp746
sg50
I01
sbag2
(g9
g4
NtRp747
(dp748
g12
(lp749
F0.2499934646722623
aF0.2499934646722623
aF0.5
asg14
g2
(g15
g4
NtRp750
(dp751
g18
I1
sg19
I00
sg20
(dp752
g24
I1
ssbsg25
g731
sg46
g32
(g33
(I0
tS'b'
tRp753
(I1
(I3
tg596
I00
S'\x1f\x81\xbdi\x1a\xc6\xfe?D\x81\xbdi\x1a\xc6\xfe?\x801u\x02V\xc1\x05@'
tbsg48
(dp754
sg50
I01
sbag2
(g9
g4
NtRp755
(dp756
g12
(lp757
F0.2499934646722623
aF0.75000653532773709
aF0.5
asg14
g2
(g15
g4
NtRp758
(dp759
g18
I1
sg19
I00
sg20
(dp760
g24
I1
ssbsg25
g731
sg46
g32
(g33
(I0
tS'b'
tRp761
(I1
(I3
tg596
I00
S'\x1e\x81\xbdi\x1a\xc6\xfe?\xe8\x7ff\x88\xc8\x14\x17@\x931u\x02V\xc1\x05@'
tbsg48
(dp762
sg50
I01
sbag2
(g9
g4
NtRp763
(dp764
g12
(lp765
F0.75000653532773709
aF0.75000653532773709
aF0.5
asg14
g2
(g15
g4
NtRp766
(dp767
g18
I1
sg19
I00
sg20
(dp768
g24
I1
ssbsg25
g731
sg46
g32
(g33
(I0
tS'b'
tRp769
(I1
(I3
tg596
I00
S'\xdf\x7ff\x88\xc8\x14\x17@\xe8\x7ff\x88\xc8\x14\x17@\x7f1u\x02V\xc1\x05@'
tbsg48
(dp770
sg50
I01
sbag2
(g9
g4
NtRp771
(dp772
g12
(lp773
F0.75000653532773709
aF0.2499934646722623
aF0.5
asg14
g2
(g15
g4
NtRp774
(dp775
g18
I1
sg19
I00
sg20
(dp776
g24
I1
ssbsg25
g731
sg46
g32
(g33
(I0
tS'b'
tRp777
(I1
(I3
tg596
I00
S'\xdf\x7ff\x88\xc8\x14\x17@C\x81\xbdi\x1a\xc6\xfe?k1u\x02V\xc1\x05@'
tbsg48
(dp778
sg50
I01
sbag2
(g9
g4
NtRp779
(dp780
g12
(lp781
F0.18396314230183361
aF0
aF0.18382514924215629
asg14
g2
(g15
g4
NtRp782
(dp783
g18
I1
sg19
I00
sg20
(dp784
g24
I1
ssbsg25
g731
sg46
g32
(g33
(I0
tS'b'
tRp785
(I1
(I3
tg596
I00
S'7_\x93%F\xa5\xf6?6\xf7\xef\xfeSc\xdc<$\x8b\x97\xaaE\xfe\xef?'
tbsg48
(dp786
sg50
I01
sbag2
(g9
g4
NtRp787
(dp788
g12
(lp789
F0
aF0.81603685769816392
aF0.81617485075784857
asg14
g2
(g15
g4
NtRp790
(dp791
g18
I1
sg19
I00
sg20
(dp792
g24
I1
ssbsg25
g731
sg46
g32
(g33
(I0
tS'b'
tRp793
(I1
(I3
tg596
I00
S'{nv\x89\x06\x0c\x00\xbdX\x08q\x99\xfd\x1c\x19@E@"M\x8d\xc1\x11@'
tbsg48
(dp794
sg50
I01
sbag2
(g9
g4
NtRp795
(dp796
g12
(lp797
F0.81603685769816392
aF0
aF0.18382514924215629
asg14
g2
(g15
g4
NtRp798
(dp799
g18
I1
sg19
I00
sg20
(dp800
g24
I1
ssbsg25
g731
sg46
g32
(g33
(I0
tS'b'
tRp801
(I1
(I3
tg596
I00
S'O\x08q\x99\xfd\x1c\x19@/\xca\xfb\x0f\x93\x94\xda<\xbc\x8a\x97\xaaE\xfe\xef?'
tbsg48
(dp802
sg50
I01
sbag2
(g9
g4
NtRp803
(dp804
g12
(lp805
F0
aF0.18396314230183361
aF0.81617485075784857
asg14
g2
(g15
g4
NtRp806
(dp807
g18
I1
sg19
I00
sg20
(dp808
g24
I1
ssbsg25
g731
sg46
g32
(g33
(I0
tS'b'
tRp809
(I1
(I3
tg596
I00
S'Y^\xe27\xdco\xfe\xbc\\_\x93%F\xa5\xf6?9@"M\x8d\xc1\x11@'
tbsg48
(dp810
sg50
I01
sbag2
(g9
g4
NtRp811
(dp812
g12
(lp813
F0.31605403082284739
aF0.5
aF0.1838666626494197
asg14
g2
(g15
g4
NtRp814
(dp815
g18
I1
sg19
I00
sg20
(dp816
g24
I1
ssbsg25
g731
sg46
g32
(g33
(I0
tS'b'
tRp817
(I1
(I3
tg596
I00
S'XEuU\xf1s\x03@8\xe0\xd5"O\xc6\x0e@\xca\xe5\x8a\x95\x0f\x00\xf0?'
tbsg48
(dp818
sg50
I01
sbag2
(g9
g4
NtRp819
(dp820
g12
(lp821
F0.5
aF0.68394596917715145
aF0.81613333735057814
asg14
g2
(g15
g4
NtRp822
(dp823
g18
I1
sg19
I00
sg20
(dp824
g24
I1
ssbsg25
g731
sg46
g32
(g33
(I0
tS'b'
tRp825
(I1
(I3
tg596
I00
S'&\xe0\xd5"O\xc6\x0e@\x85=\x1bxV\x0c\x15@\x06x\x12\x1dR\xc1\x11@'
tbsg48
(dp826
sg50
I01
sbag2
(g9
g4
NtRp827
(dp828
g12
(lp829
F0.68394596917715145
aF0.5
aF0.1838666626494197
asg14
g2
(g15
g4
NtRp830
(dp831
g18
I1
sg19
I00
sg20
(dp832
g24
I1
ssbsg25
g731
sg46
g32
(g33
(I0
tS'b'
tRp833
(I1
(I3
tg596
I00
S'|=\x1bxV\x0c\x15@8\xe0\xd5"O\xc6\x0e@\xac\xe5\x8a\x95\x0f\x00\xf0?'
tbsg48
(dp834
sg50
I01
sbag2
(g9
g4
NtRp835
(dp836
g12
(lp837
F0.5
aF0.31605403082284739
aF0.81613333735057814
asg14
g2
(g15
g4
NtRp838
(dp839
g18
I1
sg19
I00
sg20
(dp840
g24
I1
ssbsg25
g731
sg46
g32
(g33
(I0
tS'b'
tRp841
(I1
(I3
tg596
I00
S'\'\xe0\xd5"O\xc6\x0e@jEuU\xf1s\x03@\xffw\x12\x1dR\xc1\x11@'
tbsg48
(dp842
sg50
I01
sbag2
(g9
g4
NtRp843
(dp844
g12
(lp845
F0
aF0.5
aF1.0000033114959059
asg14
g2
(g15
g4
NtRp846
(dp847
g18
I1
sg19
I00
sg20
(dp848
g24
I1
ssbsg25
g731
sg46
g32
(g33
(I0
tS'b'
tRp849
(I1
(I3
tg596
I00
S'>\x96\x98\xb4\x8f\x01\x03\xbdH\xe0\xd5"O\xc6\x0e@R\x97 \xbbZ\xc1\x15@'
tbsg48
(dp850
sg50
I01
sbag2
(g9
g4
NtRp851
(dp852
g12
(lp853
F0.5
aF0
aF-3.3114959054000001e-06
asg14
g2
(g15
g4
NtRp854
(dp855
g18
I1
sg19
I00
sg20
(dp856
g24
I1
ssbsg25
g731
sg46
g32
(g33
(I0
tS'b'
tRp857
(I1
(I3
tg596
I00
S'6\xe0\xd5"O\xc6\x0e@\x1b\xb0\xc3g\x17\xe3\x96\xbcLU>\x97\xad\xe2\xf2\xbe'
tbsg48
(dp858
sg50
I01
sbasg171
Nsg25
g731
sbsI6
g2
(g3
g4
NtRp859
(dp860
g7
(lp861
g2
(g9
g4
NtRp862
(dp863
g12
(lp864
F0.76822500571178143
aF0.76822500571178143
aF0.76822500571178143
asg14
g2
(g15
g4
NtRp865
(dp866
g18
I1
sg19
I00
sg20
(dp867
g24
I1
ssbsg25
g2
(g26
g4
NtRp868
(dp869
g29
Nsg30
Nsg31
g32
(g33
(I0
tS'b'
tRp870
(I1
(I3
tg35
(S'f8'
I0
I1
tRp871
(I3
S'<'
NNNI-1
I-1
I0
tbI00
S'\x83\x16\xc8\x0f\xb8\xc1\x1d@\xa7\xa7$5\xae\xc1\x1d@\xc4\x1c\xed*\xc0\xc1\x1d@'
tbsg37
Nsg38
g32
(g33
(I0
tS'b'
tRp872
(I1
(I3
I3
tg871
I01
S'\xa0W\xb23\x9c\xc1\x1d@\xcb\xafk=]\xaf\x03\xc0A\xbf\x85\xd5\xda\xaf\x03\xc0\xf1\x8d|\xd2\x1bj\x94\xbf\xae{\xd1\xb2\xe5\x14\x1c@F\x04c\x9f\xc4\xe6\x0b\xc0\x8cK\x1b\x1c\xa4\x9d\xa1\xbf\xfe\xfd\xdc\x1eKdn\xbf\x0b}\xf1\xd0\x03_\x18@'
tbsg40
g32
(g33
(I0
tS'b'
tRp873
(I1
(I3
tg871
I00
S'\x1f`W*\x85^[@\xf9\x8dH\xbd\x1e^[@C^\x9e\xf4\xfc][@'
tbsg42
Nsg43
I00
sg44
(dp874
sbsg46
g32
(g33
(I0
tS'b'
tRp875
(I1
(I3
tg871
I00
S'\x8a\xb1j0\xf0\xf1\xfe?A\x9b\x15-\xc3\x96\x05@6nw\xa7\xfb\x9a\x12@'
tbsg48
(dp876
sg50
I01
sbag2
(g9
g4
NtRp877
(dp878
g12
(lp879
F0
aF0
aF0.2317749942882158
asg14
g2
(g15
g4
NtRp880
(dp881
g18
I1
sg19
I00
sg20
(dp882
g24
I1
ssbsg25
g868
sg46
g32
(g33
(I0
tS'b'
tRp883
(I1
(I3
tg871
I00
S'\x1a\x0b\x9b\x04s@\xe2\xbf\xfd\x99\xe0b\x0f\xde\xe9\xbf\x1fh\xb3\xc90\x98\xf6?'
tbsg48
(dp884
sg50
I01
sbag2
(g9
g4
NtRp885
(dp886
g12
(lp887
F0.2317749942882158
aF0
aF0
asg14
g2
(g15
g4
NtRp888
(dp889
g18
I1
sg19
I00
sg20
(dp890
g24
I1
ssbsg25
g868
sg46
g32
(g33
(I0
tS'b'
tRp891
(I1
(I3
tg871
I00
S'k\x9b\xfbDI\x96\xfb?\x02&\x9e\x0f \xedr\xbf\x07\xbe\xb3[\xe3T\x80\xbf'
tbsg48
(dp892
sg50
I01
sbag2
(g9
g4
NtRp893
(dp894
g12
(lp895
F0
aF0.2317749942882158
aF0
asg14
g2
(g15
g4
NtRp896
(dp897
g18
I1
sg19
I00
sg20
(dp898
g24
I1
ssbsg25
g868
sg46
g32
(g33
(I0
tS'b'
tRp899
(I1
(I3
tg871
I00
S'>\x8ed\x94\xfe?\xe2\xbfl\xa8\x8a\x94\xd3\x08\xfa?\xbe\xa9s \x1c-L\xbf'
tbsg48
(dp900
sg50
I01
sbag2
(g9
g4
NtRp901
(dp902
g12
(lp903
F0.66417838598304257
aF0.69087507253904268
aF0.3994890086202581
asg14
g2
(g15
g4
NtRp904
(dp905
g18
I1
sg19
I00
sg20
(dp906
g24
I1
ssbsg25
g868
sg46
g32
(g33
(I0
tS'b'
tRp907
(I1
(I3
tg871
I00
S'L\x19\xd8`\xf7\x0f\x02@\\k\xb8M\xaf\x8c\x0b@\x8d\x9b\xceS\xc9D\x03@'
tbsg48
(dp908
sg50
I01
sbag2
(g9
g4
NtRp909
(dp910
g12
(lp911
F0.29138606391878902
aF0.2646893773627873
aF0.60051099137974095
asg14
g2
(g15
g4
NtRp912
(dp913
g18
I1
sg19
I00
sg20
(dp914
g24
I1
ssbsg25
g868
sg46
g32
(g33
(I0
tS'b'
tRp915
(I1
(I3
tg871
I00
S'\xa0I#\xd9~\xbe\xa3?\x10.\x19\x8f\xee\xf8\xce\xbf%\xf9\xbe\xa6\xa6.\r@'
tbsg48
(dp916
sg50
I01
sbag2
(g9
g4
NtRp917
(dp918
g12
(lp919
F0.33582161401695321
aF0.73531062263720559
aF0.026696686556004101
asg14
g2
(g15
g4
NtRp920
(dp921
g18
I1
sg19
I00
sg20
(dp922
g24
I1
ssbsg25
g868
sg46
g32
(g33
(I0
tS'b'
tRp923
(I1
(I3
tg871
I00
S'\x0bVuP\x15\xf1\xe3?b\x7f!n\xdf?\x14@\x82\x8e\xb6Z\xf4\xfd\xc2?'
tbsg48
(dp924
sg50
I01
sbag2
(g9
g4
NtRp925
(dp926
g12
(lp927
F0.70861393608121437
aF0.30912492746095133
aF0.97330331344399879
asg14
g2
(g15
g4
NtRp928
(dp929
g18
I1
sg19
I00
sg20
(dp930
g24
I1
ssbsg25
g868
sg46
g32
(g33
(I0
tS'b'
tRp931
(I1
(I3
tg871
I00
S'\xa4\x84\x8c\xf8\xc9\xec\x00@P\xc8\xa7G\xf4\xd0\xf3\xbf\xe9V\x8e^P\x9e\x17@'
tbsg48
(dp932
sg50
I01
sbag2
(g9
g4
NtRp933
(dp934
g12
(lp935
F0.3994890086202581
aF0.66417838598304257
aF0.69087507253904268
asg14
g2
(g15
g4
NtRp936
(dp937
g18
I1
sg19
I00
sg20
(dp938
g24
I1
ssbsg25
g868
sg46
g32
(g33
(I0
tS'b'
tRp939
(I1
(I3
tg871
I00
S'D=\xeb|&5\xd7\xbf\xa7\x83FgY\xf6\x01@E=\xda4\xc8\xc5\x10@'
tbsg48
(dp940
sg50
I01
sbag2
(g9
g4
NtRp941
(dp942
g12
(lp943
F0.60051099137974095
aF0.29138606391878902
aF0.2646893773627873
asg14
g2
(g15
g4
NtRp944
(dp945
g18
I1
sg19
I00
sg20
(dp946
g24
I1
ssbsg25
g868
sg46
g32
(g33
(I0
tS'b'
tRp947
(I1
(I3
tg871
I00
S'K\x06-N\x85\xca\x08@e\x91Q5\xb6\xc4\xf1?T\x1e\x02Y\x8ct\xf9?'
tbsg48
(dp948
sg50
I01
sbag2
(g9
g4
NtRp949
(dp950
g12
(lp951
F0.026696686556004101
aF0.33582161401695321
aF0.73531062263720559
asg14
g2
(g15
g4
NtRp952
(dp953
g18
I1
sg19
I00
sg20
(dp954
g24
I1
ssbsg25
g868
sg46
g32
(g33
(I0
tS'b'
tRp955
(I1
(I3
tg871
I00
S'\x8a\xa6\xb9\xd0t\x7f\x03\xc0`\xa3\xc9\xaf\xe7\x8d\xca\xbfhG\xa7\xc8e\xe9\x11@'
tbsg48
(dp956
sg50
I01
sbag2
(g9
g4
NtRp957
(dp958
g12
(lp959
F0.97330331344399879
aF0.70861393608121437
aF0.30912492746095133
asg14
g2
(g15
g4
NtRp960
(dp961
g18
I1
sg19
I00
sg20
(dp962
g24
I1
ssbsg25
g868
sg46
g32
(g33
(I0
tS'b'
tRp963
(I1
(I3
tg871
I00
S'^D\x88}\xca\xf1\x12@(BC\x16\x8f\x04\x0f@1$\xa3\xab\x9b\x8e\xfd?'
tbsg48
(dp964
sg50
I01
sbag2
(g9
g4
NtRp965
(dp966
g12
(lp967
F0.69087507253904268
aF0.3994890086202581
aF0.66417838598304257
asg14
g2
(g15
g4
NtRp968
(dp969
g18
I1
sg19
I00
sg20
(dp970
g24
I1
ssbsg25
g868
sg46
g32
(g33
(I0
tS'b'
tRp971
(I1
(I3
tg871
I00
S'\x92\xe0\x03\xc7\x19-\x04@\xf8\x94\xc4\x90\xed[\xde?\xc0b5\xe9\xf5\x15\x10@'
tbsg48
(dp972
sg50
I01
sbag2
(g9
g4
NtRp973
(dp974
g12
(lp975
F0.2646893773627873
aF0.60051099137974095
aF0.29138606391878902
asg14
g2
(g15
g4
NtRp976
(dp977
g18
I1
sg19
I00
sg20
(dp978
g24
I1
ssbsg25
g868
sg46
g32
(g33
(I0
tS'b'
tRp979
(I1
(I3
tg871
I00
S'DyOa-\xe2\xcc\xbf"\xf3\x14\xe0\xe9\x8d\t@Q\x02\x9f\xc6k9\xfc?'
tbsg48
(dp980
sg50
I01
sbag2
(g9
g4
NtRp981
(dp982
g12
(lp983
F0.73531062263720559
aF0.026696686556004101
aF0.33582161401695321
asg14
g2
(g15
g4
NtRp984
(dp985
g18
I1
sg19
I00
sg20
(dp986
g24
I1
ssbsg25
g868
sg46
g32
(g33
(I0
tS'b'
tRp987
(I1
(I3
tg871
I00
S'\x1c\xbf\x1c\xe2\xcbO\x12@\xbd\xa1\xda{\x83\xf3\xef\xbf\xad0x\x81`*\x00@'
tbsg48
(dp988
sg50
I01
sbag2
(g9
g4
NtRp989
(dp990
g12
(lp991
F0.30912492746095133
aF0.97330331344399879
aF0.70861393608121437
asg14
g2
(g15
g4
NtRp992
(dp993
g18
I1
sg19
I00
sg20
(dp994
g24
I1
ssbsg25
g868
sg46
g32
(g33
(I0
tS'b'
tRp995
(I1
(I3
tg871
I00
S'`\xcf\x83\x18\x1cm\xfd\xbfd\x8b\xff4\xefk\x11@\xf9\x99\x11\xe3v6\x11@'
tbsg48
(dp996
sg50
I01
sbasg171
Nsg25
g868
sbsI7
g2
(g3
g4
NtRp997
(dp998
g7
(lp999
g2
(g9
g4
NtRp1000
(dp1001
g12
(lp1002
F0
aF0.53301477442644674
aF0.25
asg14
g2
(g15
g4
NtRp1003
(dp1004
g18
I1
sg19
I00
sg20
(dp1005
g24
I1
ssbsg25
g2
(g26
g4
NtRp1006
(dp1007
g29
Nsg30
Nsg31
g32
(g33
(I0
tS'b'
tRp1008
(I1
(I3
tg871
I00
S'0\xd0\xcd\xa6Y\x10\x15@\xd5\x11X\xb8\xe0$$@\xc4\x05\xc7\xd0g\xe6\x15@'
tbsg37
Nsg38
g32
(g33
(I0
tS'b'
tRp1009
(I1
(I3
I3
tg871
I01
S'd\x15\x0b\xe7W\x10\x15@\xd8\x8b\xff\x99\xa9\xc3\x0b\xbd\x82\xee\xb6\x9b\xc8n\xf7\xbf\xd5\xa7\xddz\xbae\x01\xbd\xd5\x11X\xb8\xe0$$@\xd5\xa7\xddz\xbae\xf1<\x1ai\xa8\xca\xfa*\x81?\xe4\x13\xd9\x8a2\x99\xec\xbc\x9a\xe2\xbc\xda\x19\x1a\x15@'
tbsg40
g32
(g33
(I0
tS'b'
tRp1010
(I1
(I3
tg871
I00
S'\xfe\xff\xff\xff\xff\x7fV@\xa9\xbb y%[Z@\n\x00\x00\x00\x00\x80V@'
tbsg42
Nsg43
I00
sg44
(dp1011
sbsg46
g32
(g33
(I0
tS'b'
tRp1012
(I1
(I3
tg871
I00
S'\xf8\xee\xb6\x9b\xc8n\xd7\xbf& <Vby\x15@\x92\xe2\xbc\xda\x19\x1a\xf5?'
tbsg48
(dp1013
sg50
I01
sbag2
(g9
g4
NtRp1014
(dp1015
g12
(lp1016
F0
aF0.46698522557355349
aF0.75
asg14
g2
(g15
g4
NtRp1017
(dp1018
g18
I1
sg19
I00
sg20
(dp1019
g24
I1
ssbsg25
g1006
sg46
g32
(g33
(I0
tS'b'
tRp1020
(I1
(I3
tg871
I00
S'\xfc2\xc9t\x16\x93\xf1\xbf\x8b\x03t\x1a_\xd0\x12@\xe4S\x1b\xc8&\xa7\x0f@'
tbsg48
(dp1021
sg50
I01
sbag2
(g9
g4
NtRp1022
(dp1023
g12
(lp1024
F0.5
aF0.5
aF0
asg14
g2
(g15
g4
NtRp1025
(dp1026
g18
I1
sg19
I00
sg20
(dp1027
g24
I1
ssbsg25
g1006
sg46
g32
(g33
(I0
tS'b'
tRp1028
(I1
(I3
tg871
I00
S'V\x15\x0b\xe7W\x10\x05@\xd1\x11X\xb8\xe0$\x14@\xf4a\xa8\xca\xfa*q?'
tbsg48
(dp1029
sg50
I01
sbag2
(g9
g4
NtRp1030
(dp1031
g12
(lp1032
F0.5
aF0.5
aF0.5
asg14
g2
(g15
g4
NtRp1033
(dp1034
g18
I1
sg19
I00
sg20
(dp1035
g24
I1
ssbsg25
g1006
sg46
g32
(g33
(I0
tS'b'
tRp1036
(I1
(I3
tg871
I00
S'k\xb3:\x80Ki\xfe?\xd3\x11X\xb8\xe0$\x14@\xcb6"X\xaf"\x05@'
tbsg48
(dp1037
sg50
I01
sbag2
(g9
g4
NtRp1038
(dp1039
g12
(lp1040
F0
aF0
aF0
asg14
g2
(g15
g4
NtRp1041
(dp1042
g18
I1
sg19
I00
sg20
(dp1043
g24
I1
ssbsg25
g1006
sg46
g32
(g33
(I0
tS'b'
tRp1044
(I1
(I3
tg871
I00
S'\x00\x00\x00\x00\x00\x00\x00\x00\x00\x00\x00\x00\x00\x00\x00\x00\x00\x00\x00\x00\x00\x00\x00\x00'
tbsg48
(dp1045
sg50
I01
sbag2
(g9
g4
NtRp1046
(dp1047
g12
(lp1048
F0
aF0
aF0.5
asg14
g2
(g15
g4
NtRp1049
(dp1050
g18
I1
sg19
I00
sg20
(dp1051
g24
I1
ssbsg25
g1006
sg46
g32
(g33
(I0
tS'b'
tRp1052
(I1
(I3
tg871
I00
S'\x82\xee\xb6\x9b\xc8n\xe7\xbf\xd5\xa7\xddz\xbae\xe1<\x9a\xe2\xbc\xda\x19\x1a\x05@'
tbsg48
(dp1053
sg50
I01
sbag2
(g9
g4
NtRp1054
(dp1055
g12
(lp1056
F0.57280257557109349
aF0.24189189532197339
aF0.48436036424878048
asg14
g2
(g15
g4
NtRp1057
(dp1058
g18
I1
sg19
I00
sg20
(dp1059
g24
I1
ssbsg25
g1006
sg46
g32
(g33
(I0
tS'b'
tRp1060
(I1
(I3
tg871
I00
S"1'a\xb7\xb5t\x02@d\x92\x00\xb7\xa0}\x03@!d\x80\x05\xf6z\x04@"
tbsg48
(dp1061
sg50
I01
sbag2
(g9
g4
NtRp1062
(dp1063
g12
(lp1064
F0.42719742442890568
aF0.75810810467802825
aF0.51563963575122296
asg14
g2
(g15
g4
NtRp1065
(dp1066
g18
I1
sg19
I00
sg20
(dp1067
g24
I1
ssbsg25
g1006
sg46
g32
(g33
(I0
tS'b'
tRp1068
(I1
(I3
tg871
I00
S'K\x18\xb3\x91+\xe9\xf7?\x85\xda/\x15\xf1\x8a\x1e@\x9d\t\xc4\xaah\xca\x05@'
tbsg48
(dp1069
sg50
I01
sbag2
(g9
g4
NtRp1070
(dp1071
g12
(lp1072
F0.42719742442890568
aF0.24189189532197339
aF0.0156396357512197
asg14
g2
(g15
g4
NtRp1073
(dp1074
g18
I1
sg19
I00
sg20
(dp1075
g24
I1
ssbsg25
g1006
sg46
g32
(g33
(I0
tS'b'
tRp1076
(I1
(I3
tg871
I00
S'\xdfG\xc7\xefG\xd0\x01@c\x92\x00\xb7\xa0}\x03@\x1a\xdc\xe4\x00\xda\t\xb6?'
tbsg48
(dp1077
sg50
I01
sbag2
(g9
g4
NtRp1078
(dp1079
g12
(lp1080
F0.57280257557109349
aF0.75810810467802825
aF0.98436036424877704
asg14
g2
(g15
g4
NtRp1081
(dp1082
g18
I1
sg19
I00
sg20
(dp1083
g24
I1
ssbsg25
g1006
sg46
g32
(g33
(I0
tS'b'
tRp1084
(I1
(I3
tg871
I00
S'\x1c\xd7\xe6 \x072\xf9?\x86\xda/\x15\xf1\x8a\x1e@G\xa3\x1e\xf0\x87\xca\x14@'
tbsg48
(dp1085
sg50
I01
sbag2
(g9
g4
NtRp1086
(dp1087
g12
(lp1088
F0.5
aF0.96698522557355293
aF0.25
asg14
g2
(g15
g4
NtRp1089
(dp1090
g18
I1
sg19
I00
sg20
(dp1091
g24
I1
ssbsg25
g1006
sg46
g32
(g33
(I0
tS'b'
tRp1092
(I1
(I3
tg871
I00
S'y7\x94\xd3~"\x02@\xaa\nf\xe9\x9fz#@\xf5\x8a\x87\xd5D+\xf5?'
tbsg48
(dp1093
sg50
I01
sbag2
(g9
g4
NtRp1094
(dp1095
g12
(lp1096
F0.5
aF0.033014774426447603
aF0.75
asg14
g2
(g15
g4
NtRp1097
(dp1098
g18
I1
sg19
I00
sg20
(dp1099
g24
I1
ssbsg25
g1006
sg46
g32
(g33
(I0
tS'b'
tRp1100
(I1
(I3
tg871
I00
S'\xe4\xf7LY\x99\x8d\xf8?\x8b\xe5@\xde\x19H\xd5?\x1b\xa8\x80E\xbc\xaf\x0f@'
tbsg48
(dp1101
sg50
I01
sbag2
(g9
g4
NtRp1102
(dp1103
g12
(lp1104
F0.072802575571090697
aF0.74189189532197275
aF-0.0156396357512208
asg14
g2
(g15
g4
NtRp1105
(dp1106
g18
I1
sg19
I00
sg20
(dp1107
g24
I1
ssbsg25
g1006
sg46
g32
(g33
(I0
tS'b'
tRp1108
(I1
(I3
tg871
I00
S'\x15j\x1e\xba\x7f\x00\xda?\x02[\xd8\x13\xb1\xe3\x1d@\x0eX:T*\xf7\xb4\xbf'
tbsg48
(dp1109
sg50
I01
sbag2
(g9
g4
NtRp1110
(dp1111
g12
(lp1112
F0.92719742442890341
aF0.25810810467802819
aF1.015639635751227
asg14
g2
(g15
g4
NtRp1113
(dp1114
g18
I1
sg19
I00
sg20
(dp1115
g24
I1
ssbsg25
g1006
sg46
g32
(g33
(I0
tS'b'
tRp1116
(I1
(I3
tg871
I00
S'\xce\xe5\xf6\x88;)\x0b@\\\x91\xaf\xb9 \xcc\x04@O s\x01\x8cv\x15@'
tbsg48
(dp1117
sg50
I01
sbag2
(g9
g4
NtRp1118
(dp1119
g12
(lp1120
F0.92719742442890341
aF0.74189189532197275
aF0.51563963575121974
asg14
g2
(g15
g4
NtRp1121
(dp1122
g18
I1
sg19
I00
sg20
(dp1123
g24
I1
ssbsg25
g1006
sg46
g32
(g33
(I0
tS'b'
tRp1124
(I1
(I3
tg871
I00
S'\xbdP\xf2\xd7v\x82\x10@\xfdZ\xd8\x13\xb1\xe3\x1d@\xac])(\xfe\xd2\x05@'
tbsg48
(dp1125
sg50
I01
sbag2
(g9
g4
NtRp1126
(dp1127
g12
(lp1128
F0.072802575571090697
aF0.25810810467802819
aF0.48436036424877982
asg14
g2
(g15
g4
NtRp1129
(dp1130
g18
I1
sg19
I00
sg20
(dp1131
g24
I1
ssbsg25
g1006
sg46
g32
(g33
(I0
tS'b'
tRp1132
(I1
(I3
tg871
I00
S'\x93rO}\x11\xdd\xd4\xbff\x91\xaf\xb9 \xcc\x04@\xe5\x0f\x1b\x88`r\x04@'
tbsg48
(dp1133
sg50
I01
sbasg171
Nsg25
g1006
sbsI8
g2
(g3
g4
NtRp1134
(dp1135
g7
(lp1136
g2
(g9
g4
NtRp1137
(dp1138
g12
(lp1139
F0.28869261002363072
aF0.1872227219217785
aF0.070875201823398404
asg14
g2
(g15
g4
NtRp1140
(dp1141
g18
I1
sg19
I00
sg20
(dp1142
g24
I1
ssbsg25
g2
(g26
g4
NtRp1143
(dp1144
g29
Nsg30
Nsg31
g32
(g33
(I0
tS'b'
tRp1145
(I1
(I3
tg35
(S'f8'
I0
I1
tRp1146
(I3
S'<'
NNNI-1
I-1
I0
tbI00
S'\xff\xdf\xf8\xd9ZN\x10@ k\x9fvm\x0b"@$ \x16\xc1\x0f\'\x1f@'
tbsg37
Nsg38
g32
(g33
(I0
tS'b'
tRp1147
(I1
(I3
I3
tg1146
I01
S'\xff\xdf\xf8\xd9ZN\x10@\x1bv\xc0\xe3\x8d1&\xbd\xce\xec\x93\x1d\x07\x8c\x08=/-`\xa4N8\x0f\xbd k\x9fvm\x0b"@\xb6\xe5\x03W\x06r\x1e=\x12P\x1d/g\x91\x05=\xb9\xc5N\xb0\xdb~\xe4\xbc$ \x16\xc1\x0f\'\x1f@'
tbsg40
g32
(g33
(I0
tS'b'
tRp1148
(I1
(I3
tg1146
I00
S'\xf2\xff\xff\xff\xff\x7fV@\xf1\xff\xff\xff\xff\x7fV@\x1f\x00\x00\x00\x00\x80V@'
tbsg42
Nsg43
I01
sg44
(dp1149
sbsg46
g32
(g33
(I0
tS'b'
tRp1150
(I1
(I3
tg1146
I00
S'\xf6\xff\r\xf0k\xd4\xf2?\x86\x10B\xfb\xe4\x06\xfb?\x0cr\xd4m\xdf\xa9\xe1?'
tbsg48
(dp1151
sg50
I01
sbag2
(g9
g4
NtRp1152
(dp1153
g12
(lp1154
F0.71130738997636866
aF0.81277727807822597
aF0.070875201823398404
asg14
g2
(g15
g4
NtRp1155
(dp1156
g18
I1
sg19
I00
sg20
(dp1157
g24
I1
ssbsg25
g1143
sg46
g32
(g33
(I0
tS'b'
tRp1158
(I1
(I3
tg1146
I00
S'\xa8\xbf\xea\xbb\x7f2\x07@ARn\xae!U\x1d@$r\xd4m\xdf\xa9\xe1?'
tbsg48
(dp1159
sg50
I01
sbag2
(g9
g4
NtRp1160
(dp1161
g12
(lp1162
F0.78869261002363134
aF0.31277727807822081
aF0.92912479817660087
asg14
g2
(g15
g4
NtRp1163
(dp1164
g18
I1
sg19
I00
sg20
(dp1165
g24
I1
ssbsg25
g1143
sg46
g32
(g33
(I0
tS'b'
tRp1166
(I1
(I3
tg1146
I00
S'\n\xe0\xff\xd1\x90\xb8\t@\x0b\xce\x9doh\x93\x06@\xe7\x91[\xd3\xd3\xf1\x1c@'
tbsg48
(dp1167
sg50
I01
sbag2
(g9
g4
NtRp1168
(dp1169
g12
(lp1170
F0.21130738997637041
aF0.68722272192177403
aF0.92912479817660087
asg14
g2
(g15
g4
NtRp1171
(dp1172
g18
I1
sg19
I00
sg20
(dp1173
g24
I1
ssbsg25
g1143
sg46
g32
(g33
(I0
tS'b'
tRp1174
(I1
(I3
tg1146
I00
S'e\x7f\xc7\x87\x93\x90\xeb?/\xefo\xb5&\xcd\x18@\xe0\x91[\xd3\xd3\xf1\x1c@'
tbsg48
(dp1175
sg50
I01
sbag2
(g9
g4
NtRp1176
(dp1177
g12
(lp1178
F0
aF0.5
aF0.17012438535919031
asg14
g2
(g15
g4
NtRp1179
(dp1180
g18
I1
sg19
I00
sg20
(dp1181
g24
I1
ssbsg25
g1143
sg46
g32
(g33
(I0
tS'b'
tRp1182
(I1
(I3
tg1146
I00
S'\x04I\x10e\x05\x1b\x14\xbd%k\x9fvm\x0b\x12@(\x9bV\x80\x023\xf5?'
tbsg48
(dp1183
sg50
I01
sbag2
(g9
g4
NtRp1184
(dp1185
g12
(lp1186
F0.5
aF0
aF0.82987561464080772
asg14
g2
(g15
g4
NtRp1187
(dp1188
g18
I1
sg19
I00
sg20
(dp1189
g24
I1
ssbsg25
g1143
sg46
g32
(g33
(I0
tS'b'
tRp1190
(I1
(I3
tg1146
I00
S'\x13\xe0\xf8\xd9ZN\x00@5\x9c\x07\x8a\xfeu\x11=My\x00!O\xda\x19@'
tbsg48
(dp1191
sg50
I01
sbag2
(g9
g4
NtRp1192
(dp1193
g12
(lp1194
F0
aF0
aF0.2386881263645515
asg14
g2
(g15
g4
NtRp1195
(dp1196
g18
I1
sg19
I00
sg20
(dp1197
g24
I1
ssbsg25
g1143
sg46
g32
(g33
(I0
tS'b'
tRp1198
(I1
(I3
tg1146
I00
S'\x8a\xa1\xd6\xf7\xb0o\xe7<\xce\xa6([]\x11\xfd<\xf4\x14\xad\xc15\xbe\xfd?'
tbsg48
(dp1199
sg50
I01
sbag2
(g9
g4
NtRp1200
(dp1201
g12
(lp1202
F0.5
aF0.5
aF0.76131187363544794
asg14
g2
(g15
g4
NtRp1203
(dp1204
g18
I1
sg19
I00
sg20
(dp1205
g24
I1
ssbsg25
g1143
sg46
g32
(g33
(I0
tS'b'
tRp1206
(I1
(I3
tg1146
I00
S'\xe6\xdf\xf8\xd9ZN\x00@/k\x9fvm\x0b\x12@\xe6\xda\xaaP\x82\xb7\x17@'
tbsg48
(dp1207
sg50
I01
sbag2
(g9
g4
NtRp1208
(dp1209
g12
(lp1210
F0.46944930425373133
aF0.66684538759786194
aF0.31228332853126928
asg14
g2
(g15
g4
NtRp1211
(dp1212
g18
I1
sg19
I00
sg20
(dp1213
g24
I1
ssbsg25
g1143
sg46
g32
(g33
(I0
tS'b'
tRp1214
(I1
(I3
tg1146
I00
S'\x0e\x10\xd1\x8c\x97\x9e\xfe?$\xbe\xafQ\xe3\x10\x18@\t\x1bk \xf5t\x03@'
tbsg48
(dp1215
sg50
I01
sbag2
(g9
g4
NtRp1216
(dp1217
g12
(lp1218
F0.53055069574627323
aF0.33315461240213529
aF0.31228332853126928
asg14
g2
(g15
g4
NtRp1219
(dp1220
g18
I1
sg19
I00
sg20
(dp1221
g24
I1
ssbsg25
g1143
sg46
g32
(g33
(I0
tS'b'
tRp1222
(I1
(I3
tg1146
I00
S'\xd77\x89\xediM\x01@\x070\x1e7\xef\x0b\x08@\x0c\x1bk \xf5t\x03@'
tbsg48
(dp1223
sg50
I01
sbag2
(g9
g4
NtRp1224
(dp1225
g12
(lp1226
F0.96944930425372677
aF0.83315461240213806
aF0.68771667146872684
asg14
g2
(g15
g4
NtRp1227
(dp1228
g18
I1
sg19
I00
sg20
(dp1229
g24
I1
ssbsg25
g1143
sg46
g32
(g33
(I0
tS'b'
tRp1230
(I1
(I3
tg1146
I00
S'\xd7ga\xa0\xa6\x9d\x0f@E\x83.\x12e\x11\x1e@\x89\x92\xe00\x95l\x15@'
tbsg48
(dp1231
sg50
I01
sbag2
(g9
g4
NtRp1232
(dp1233
g12
(lp1234
F0.0305506957462677
aF0.16684538759786141
aF0.68771667146872684
asg14
g2
(g15
g4
NtRp1235
(dp1236
g18
I1
sg19
I00
sg20
(dp1237
g24
I1
ssbsg25
g1143
sg46
g32
(g33
(I0
tS'b'
tRp1238
(I1
(I3
tg1146
I00
S'\xb1\xf7\nr\xe2\xe1\xbf?BLAl\xd7\x15\xf8?\x81\x92\xe00\x95l\x15@'
tbsg48
(dp1239
sg50
I01
sbag2
(g9
g4
NtRp1240
(dp1241
g12
(lp1242
F0.67099775531803574
aF0.1079331831256784
aF0.45400665192365502
asg14
g2
(g15
g4
NtRp1243
(dp1244
g18
I1
sg19
I00
sg20
(dp1245
g24
I1
ssbsg25
g1143
sg46
g32
(g33
(I0
tS'b'
tRp1246
(I1
(I3
tg1146
I00
S'g:T,\xf7\xe1\x05@\xd9\x11\xdf\xb0n)\xef?\x1a\x88%DvI\x0c@'
tbsg48
(dp1247
sg50
I01
sbag2
(g9
g4
NtRp1248
(dp1249
g12
(lp1250
F0.3290022446819596
aF0.89206681687432055
aF0.45400665192365502
asg14
g2
(g15
g4
NtRp1251
(dp1252
g18
I1
sg19
I00
sg20
(dp1253
g24
I1
ssbsg25
g1143
sg46
g32
(g33
(I0
tS'b'
tRp1254
(I1
(I3
tg1146
I00
S'S\n;\x0f}u\xf5?\x03z\x91\x8b\xd6\x18 @\x0f\x88%DvI\x0c@'
tbsg48
(dp1255
sg50
I01
sbag2
(g9
g4
NtRp1256
(dp1257
g12
(lp1258
F0.17099775531804151
aF0.39206681687432421
aF0.5459933480763427
asg14
g2
(g15
g4
NtRp1259
(dp1260
g18
I1
sg19
I00
sg20
(dp1261
g24
I1
ssbsg25
g1143
sg46
g32
(g33
(I0
tS'b'
tRp1262
(I1
(I3
tg1146
I00
S'\x1bjmIqN\xe6?"\x12\x07A\x7fL\x0c@\x0b\\\x03\x9fT\x02\x11@'
tbsg48
(dp1263
sg50
I01
sbag2
(g9
g4
NtRp1264
(dp1265
g12
(lp1266
F0.82900224468196426
aF0.60793318312567945
aF0.5459933480763427
asg14
g2
(g15
g4
NtRp1267
(dp1268
g18
I1
sg19
I00
sg20
(dp1269
g24
I1
ssbsg25
g1143
sg46
g32
(g33
(I0
tS'b'
tRp1270
(I1
(I3
tg1146
I00
S'ne\x96a\x19\t\x0b@fM\xbbL\x9b\xf0\x15@\x11\\\x03\x9fT\x02\x11@'
tbsg48
(dp1271
sg50
I01
sbasg171
Nsg25
g1143
sbsI9
g2
(g3
g4
NtRp1272
(dp1273
g7
(lp1274
g2
(g9
g4
NtRp1275
(dp1276
g12
(lp1277
F0
aF0
aF0.5
asg14
g2
(g15
g4
NtRp1278
(dp1279
g18
I1
sg19
I00
sg20
(dp1280
g24
I1
ssbsg25
g2
(g26
g4
NtRp1281
(dp1282
g29
Nsg30
Nsg31
g32
(g33
(I0
tS'b'
tRp1283
(I1
(I3
tg1146
I00
S'2i\x1a\xfeH\x8d\x17@\x1e\x850\xea\xd6\x8d\x17@\xc4>\xbc\xdd\x7f>$@'
tbsg37
Nsg38
g32
(g33
(I0
tS'b'
tRp1284
(I1
(I3
I3
tg1146
I01
S'\xacO\xea\xc6C\x8d\x17@\x94\x06\xcfF!r\x07\xc0\xa8\xea\x04\x9b\xe4\x84??\xf0\xc9\x96]\x07Y\x8f\xbf\xcfLe\x00\xf8m\x14@\xc7\xe9)\x82\x9e\xdb\xf0>\x0f\xe7\x04\xeb %\t\xbf\t\r\xff\x04\xb7\xa2?\xbf\xf6\xfcY\xdd\x7f>$@'
tbsg40
g32
(g33
(I0
tS'b'
tRp1285
(I1
(I3
tg1146
I00
S'\xdf\xca;\xdca\x80V@\x86\x8c\x10\x0c\xdb\x7fV@\xd5\xb4M\xa7\xcf\xff]@'
tbsg42
Nsg43
I00
sg44
(dp1286
sbsg46
g32
(g33
(I0
tS'b'
tRp1287
(I1
(I3
tg1146
I00
S'\xa8\xea\x04\x9b\xe4\x84/?\xc7\xe9)\x82\x9e\xdb\xe0>\xf6\xfcY\xdd\x7f>\x14@'
tbsg48
(dp1288
sg50
I01
sbag2
(g9
g4
NtRp1289
(dp1290
g12
(lp1291
F0.184679212411162
aF0.8153207875888413
aF0.088592616660096796
asg14
g2
(g15
g4
NtRp1292
(dp1293
g18
I1
sg19
I00
sg20
(dp1294
g24
I1
ssbsg25
g1281
sg46
g32
(g33
(I0
tS'b'
tRp1295
(I1
(I3
tg1146
I00
S'n\xf0\xa6\x8c:\xd5\xf4\xbf\xb9\xe7(\x855\xa5\x10@\xbe\xdc\xcdd\xcd\xae\xec?'
tbsg48
(dp1296
sg50
I01
sbag2
(g9
g4
NtRp1297
(dp1298
g12
(lp1299
F0.8153207875888413
aF0.184679212411162
aF0.91140738333990801
asg14
g2
(g15
g4
NtRp1300
(dp1301
g18
I1
sg19
I00
sg20
(dp1302
g24
I1
ssbsg25
g1281
sg46
g32
(g33
(I0
tS'b'
tRp1303
(I1
(I3
tg1146
I00
S'\x9c\xf4>\xda\xff\t\x11@p\xd2\xa9s\xd1\xc8\xed?\x86\xdaVxMs"@'
tbsg48
(dp1304
sg50
I01
sbag2
(g9
g4
NtRp1305
(dp1306
g12
(lp1307
F0.184679212411162
aF0.36935842482232401
aF0.088592616660096796
asg14
g2
(g15
g4
NtRp1308
(dp1309
g18
I1
sg19
I00
sg20
(dp1310
g24
I1
ssbsg25
g1281
sg46
g32
(g33
(I0
tS'b'
tRp1311
(I1
(I3
tg1146
I00
S'R\xb7\x81\xb7,8t?\xbd\xba\xe0\xfe[#\xfe?\xa9\xd2\xe8\xdb\x90\xb0\xec?'
tbsg48
(dp1312
sg50
I01
sbag2
(g9
g4
NtRp1313
(dp1314
g12
(lp1315
F0.8153207875888413
aF0.6306415751776745
aF0.91140738333990801
asg14
g2
(g15
g4
NtRp1316
(dp1317
g18
I1
sg19
I00
sg20
(dp1318
g24
I1
ssbsg25
g1281
sg46
g32
(g33
(I0
tS'b'
tRp1319
(I1
(I3
tg1146
I00
S'F\xb0\xceWF\x9f\x07@z\xe6\xcbg\xf1\xaa\t@(+\xe5@1s"@'
tbsg48
(dp1320
sg50
I01
sbag2
(g9
g4
NtRp1321
(dp1322
g12
(lp1323
F0.6306415751776745
aF0.8153207875888413
aF0.088592616660096796
asg14
g2
(g15
g4
NtRp1324
(dp1325
g18
I1
sg19
I00
sg20
(dp1326
g24
I1
ssbsg25
g1281
sg46
g32
(g33
(I0
tS'b'
tRp1327
(I1
(I3
tg1146
I00
S'\xcd\xdd\xe3h\x12.\xf5?/v\xfa\x168\x9e\x10@-\x94\xef\x89\xa0\xae\xec?'
tbsg48
(dp1328
sg50
I01
sbag2
(g9
g4
NtRp1329
(dp1330
g12
(lp1331
F0.36935842482232401
aF0.184679212411162
aF0.91140738333990801
asg14
g2
(g15
g4
NtRp1332
(dp1333
g18
I1
sg19
I00
sg20
(dp1334
g24
I1
ssbsg25
g1281
sg46
g32
(g33
(I0
tS'b'
tRp1335
(I1
(I3
tg1146
I00
S'\xb5\x03qs\xb2$\xfa?\xbf^\x1d\xe5\xbc\x00\xee?\x0f\xbf\x04FPs"@'
tbsg48
(dp1336
sg50
I01
sbag2
(g9
g4
NtRp1337
(dp1338
g12
(lp1339
F0.5
aF0
aF0.5
asg14
g2
(g15
g4
NtRp1340
(dp1341
g18
I1
sg19
I00
sg20
(dp1342
g24
I1
ssbsg25
g1281
sg46
g32
(g33
(I0
tS'b'
tRp1343
(I1
(I3
tg1146
I00
S'\xc0\xbb|\xda\xc1\x8d\x07@\xfb\xb4U\x8e\x99P\x7f\xbf5\xc2\x11\x94y>\x14@'
tbsg48
(dp1344
sg50
I01
sbag2
(g9
g4
NtRp1345
(dp1346
g12
(lp1347
F0
aF0.5
aF0.5
asg14
g2
(g15
g4
NtRp1348
(dp1349
g18
I1
sg19
I00
sg20
(dp1350
g24
I1
ssbsg25
g1281
sg46
g32
(g33
(I0
tS'b'
tRp1351
(I1
(I3
tg1146
I00
S'm.\xaa\x1f%q\xf7\xbfY\xedL7\xfcm\x04@\xf8\xf2\xeb\x97@>\x14@'
tbsg48
(dp1352
sg50
I01
sbag2
(g9
g4
NtRp1353
(dp1354
g12
(lp1355
F0.5
aF0.5
aF0.5
asg14
g2
(g15
g4
NtRp1356
(dp1357
g18
I1
sg19
I00
sg20
(dp1358
g24
I1
ssbsg25
g1281
sg46
g32
(g33
(I0
tS'b'
tRp1359
(I1
(I3
tg1146
I00
S'\xebp*nb\xa9\xf7?\xf4!\x9e\xb3O^\x04@7\xb8\xa3N:>\x14@'
tbsg48
(dp1360
sg50
I01
sbag2
(g9
g4
NtRp1361
(dp1362
g12
(lp1363
F0.82579504216091915
aF0.17420495783908191
aF0.2706884764100293
asg14
g2
(g15
g4
NtRp1364
(dp1365
g18
I1
sg19
I00
sg20
(dp1366
g24
I1
ssbsg25
g1281
sg46
g32
(g33
(I0
tS'b'
tRp1367
(I1
(I3
tg1146
I00
S'\xe5\xd8\xfa\x14Eh\x11@(f\x9e".\x11\xec?C\xb2\tC\x1e\xeb\x05@'
tbsg48
(dp1368
sg50
I01
sbag2
(g9
g4
NtRp1369
(dp1370
g12
(lp1371
F0.17420495783908191
aF0.82579504216091915
aF0.72931152358997364
asg14
g2
(g15
g4
NtRp1372
(dp1373
g18
I1
sg19
I00
sg20
(dp1374
g24
I1
ssbsg25
g1281
sg46
g32
(g33
(I0
tS'b'
tRp1375
(I1
(I3
tg1146
I00
S'\xaf\x81\x96wON\xf6\xbf5UJ\xef)\xdc\x10@m\x97\xc2{\xe5\x86\x1d@'
tbsg48
(dp1376
sg50
I01
sbag2
(g9
g4
NtRp1377
(dp1378
g12
(lp1379
F0.82579504216091915
aF0.65159008432184207
aF0.2706884764100293
asg14
g2
(g15
g4
NtRp1380
(dp1381
g18
I1
sg19
I00
sg20
(dp1382
g24
I1
ssbsg25
g1281
sg46
g32
(g33
(I0
tS'b'
tRp1383
(I1
(I3
tg1146
I00
S'G$}M6\x9f\x07@\x9cl\x83\xb1\xb6\x85\n@\x98\xb6cq\xa5\xea\x05@'
tbsg48
(dp1384
sg50
I01
sbag2
(g9
g4
NtRp1385
(dp1386
g12
(lp1387
F0.17420495783908191
aF0.34840991567816371
aF0.72931152358997364
asg14
g2
(g15
g4
NtRp1388
(dp1389
g18
I1
sg19
I00
sg20
(dp1390
g24
I1
ssbsg25
g1281
sg46
g32
(g33
(I0
tS'b'
tRp1391
(I1
(I3
tg1146
I00
S'\x16\x18\x99ZAXt?\x1f\xafqk\xd1m\xfc?B\x95\x95\xe4!\x87\x1d@'
tbsg48
(dp1392
sg50
I01
sbag2
(g9
g4
NtRp1393
(dp1394
g12
(lp1395
F0.34840991567816371
aF0.17420495783908191
aF0.2706884764100293
asg14
g2
(g15
g4
NtRp1396
(dp1397
g18
I1
sg19
I00
sg20
(dp1398
g24
I1
ssbsg25
g1281
sg46
g32
(g33
(I0
tS'b'
tRp1399
(I1
(I3
tg1146
I00
S'6\xfeOB\xf4\xa7\xf8?6\xf2\xb2@\nM\xec?{\xfe\x06D*\xeb\x05@'
tbsg48
(dp1400
sg50
I01
sbag2
(g9
g4
NtRp1401
(dp1402
g12
(lp1403
F0.65159008432184207
aF0.82579504216091915
aF0.72931152358997364
asg14
g2
(g15
g4
NtRp1404
(dp1405
g18
I1
sg19
I00
sg20
(dp1406
g24
I1
ssbsg25
g1281
sg46
g32
(g33
(I0
tS'b'
tRp1407
(I1
(I3
tg1146
I00
S'-\xe4\x04\x9a\xd0\xaa\xf6?\xb3\xc3\x87k\xae\xd4\x10@Q\xf1C{\xdf\x86\x1d@'
tbsg48
(dp1408
sg50
I01
sbasg171
Nsg25
g1281
sbs.