(dp1
I0
(lp2
(lp3
I4
aI4
aI4
aa(lp4
I6
aI6
aI6
aa(lp5
I6
aI6
aI6
aasI1
(lp6
(lp7
I2
aI2
aI4
aa(lp8
I4
aI4
aI4
aa(lp9
I6
aI6
aI4
aasI2
(lp10
(lp11
I4
aI4
aI4
aa(lp12
I6
aI6
aI6
aa(lp13
I6
aI6
aI6
aasI3
(lp14
(lp15
I4
aI4
aI4
aa(lp16
I6
aI6
aI4
aa(lp17
I8
aI8
aI2
aasI4
(lp18
(lp19
I2
aI2
aI4
aa(lp20
I4
aI4
aI4
aa(lp21
I8
aI8
aI6
aasI5
(lp22
(lp23
I4
aI4
aI4
aa(lp24
I6
aI6
aI6
aa(lp25
I6
aI6
aI6
aasI6
(lp26
(lp27
I4
aI4
aI4
aa(lp28
I6
aI6
aI6
aa(lp29
I4
aI4
aI8
aasI7
(lp30
(lp31
I6
aI6
aI4
aa(lp32
I8
aI6
aI4
aa(lp33
I6
aI6
aI4
aasI8
(lp34
(lp35
I4
aI4
aI4
aa(lp36
I6
aI4
aI4
aa(lp37
I6
aI6
aI6
aasI9
(lp38
(lp39
I6
aI6
aI4
aa(lp40
I8
aI8
aI6
aa(lp41
I6
aI6
aI4
aasI10
(lp42
(lp43
I4
aI4
aI4
aa(lp44
I6
aI6
aI6
aa(lp45
I6
aI6
aI6
aasI11
(lp46
(lp47
I6
aI6
aI4
aa(lp48
I8
aI8
aI4
aa(lp49
I6
aI6
aI4
aasI12
(lp50
(lp51
I6
aI6
aI6
aa(lp52
I8
aI8
aI8
aa(lp53
I6
aI6
aI6
aasI13
(lp54
(lp55
I4
aI4
aI4
aa(lp56
I6
aI6
aI6
aa(lp57
I6
aI6
aI6
aasI14
(lp58
(lp59
I4
aI4
aI4
aa(lp60
I6
aI6
aI6
aa(lp61
I6
aI6
aI6
aasI15
(lp62
(lp63
I6
aI4
aI4
aa(lp64
I6
aI6
aI6
aa(lp65
I6
aI6
aI6
aasI16
(lp66
(lp67
I6
aI4
aI4
aa(lp68
I6
aI6
aI6
aa(lp69
I6
aI6
aI6
aasI17
(lp70
(lp71
I4
aI4
aI4
aa(lp72
I6
aI6
aI6
aa(lp73
I6
aI6
aI6
aasI18
(lp74
(lp75
I4
aI4
aI2
aa(lp76
I6
aI4
aI4
aa(lp77
I4
aI4
aI4
aasI19
(lp78
(lp79
I4
aI4
aI4
aa(lp80
I4
aI4
aI4
aa(lp81
I4
aI4
aI6
aas.